
Allocating common symbols
Common symbol       size              file

netbufpool          0x4               binaries/net.o
readylist           0x2               binaries/ready.o
rfltab              0x5a0             binaries/rflinit.o
plzhackme_content   0x4               binaries/myhacker.o
sleepq              0x2               binaries/clkinit.o
nnames              0x4               binaries/naminit.o
udptab              0x168             binaries/udp.o
minheap             0x4               binaries/meminit.o
marks               0x50              binaries/mark.o
currpid             0x4               binaries/initialize.o
Lf_data             0x20c             binaries/lfsinit.o
porttab             0x2d0             binaries/ptinit.o
girmask             0x2               binaries/evec.o
ttytab              0x10c             binaries/ttyinit.o
proctab             0x15e0            binaries/initialize.o
prcount             0x4               binaries/initialize.o
lfltab              0xf00             binaries/lflinit.o
rdstab              0x8c              binaries/rdsinit.o
ethertab            0x138             binaries/ethinit.o
NetData             0xa8              binaries/net.o
nmarks              0x4               binaries/mark.o
Defer               0x8               binaries/resched.o
semtab              0x4b0             binaries/initialize.o
maxheap             0x4               binaries/meminit.o
preempt             0x4               binaries/clkinit.o
buftab              0xf0              binaries/bufinit.o
Rf_data             0x18              binaries/rfsinit.o
mkmutex             0x4               binaries/mark.o
clktime             0x4               binaries/clkinit.o
arpcache            0x140             binaries/arp.o
icmptab             0x230             binaries/icmp.o
nbpools             0x4               binaries/bufinit.o
queuetab            0x980             binaries/queue.o
ptnextid            0x4               binaries/ptinit.o
Ram                 0x19000           binaries/raminit.o
ipoqueue            0x2c              binaries/ip.o
memlist             0x8               binaries/initialize.o
nametab             0x19a0            binaries/naminit.o
ptfree              0x4               binaries/ptinit.o

Memory Configuration

Name             Origin             Length             Attributes
*default*        0x0000000000000000 0xffffffffffffffff

Linker script and memory map

                0x0000000000100000                physbase = 0x100000
                0x0000000000100000                . = physbase
                0x0000000000100000                . = ALIGN (0x1000)

.text           0x0000000000100000    0x15000
                0x0000000000100000                text = ABSOLUTE (.)
 *(.text .text.*)
 .text          0x0000000000100000      0x1ab binaries/start.o
                0x0000000000100028                start
                0x00000000001000f9                inb
                0x0000000000100101                inw
                0x000000000010010a                inl
                0x0000000000100112                outb
                0x000000000010011c                outw
                0x0000000000100127                outl
                0x0000000000100131                _rtcin
                0x000000000010013c                ___udivsi3
                0x0000000000100147                ___divsi3
                0x0000000000100153                sbzero
                0x0000000000100163                bcopy
                0x0000000000100177                insw
                0x000000000010018d                outsw
                0x00000000001001a3                lidt
 .text          0x00000000001001ab      0x2b9 binaries/ascdate.o
                0x00000000001001ab                ascdate
 .text          0x0000000000100464       0x14 binaries/bufinit.o
                0x0000000000100464                bufinit
 .text          0x0000000000100478       0x74 binaries/chprio.o
                0x0000000000100478                chprio
 .text          0x00000000001004ec       0x74 binaries/clkhandler.o
                0x00000000001004ec                clkhandler
 .text          0x0000000000100560       0x5d binaries/clkinit.o
                0x0000000000100560                clkinit
 .text          0x00000000001005bd       0x56 binaries/close.o
                0x00000000001005bd                close
 .text          0x0000000000100613        0x0 binaries/conf.o
 .text          0x0000000000100613       0x5c binaries/control.o
                0x0000000000100613                control
 .text          0x000000000010066f      0x26b binaries/create.o
                0x000000000010066f                create
 .text          0x00000000001008da      0x20e binaries/early_imr.o
                0x00000000001008da                intel_cln_early_sb_read_reg
                0x0000000000100931                intel_cln_early_sb_write_reg
                0x00000000001009eb                remove_irm_protections
 .text          0x0000000000100ae8      0x2f4 binaries/evec.o
                0x0000000000100ae8                setirmask
                0x0000000000100b20                set_evec
                0x0000000000100b7b                initevec
                0x0000000000100c4d                trap
 .text          0x0000000000100ddc       0x7f binaries/freebuf.o
                0x0000000000100ddc                freebuf
 .text          0x0000000000100e5b      0x108 binaries/freemem.o
                0x0000000000100e5b                freemem
 .text          0x0000000000100f63       0x6e binaries/getbuf.o
                0x0000000000100f63                getbuf
 .text          0x0000000000100fd1       0x56 binaries/getc.o
                0x0000000000100fd1                getc
 .text          0x0000000000101027       0x69 binaries/getdev.o
                0x0000000000101027                getdev
 .text          0x0000000000101090       0x82 binaries/getitem.o
                0x0000000000101090                getitem
                0x00000000001010bf                getfirst
                0x00000000001010e6                getlast
 .text          0x0000000000101112       0xc2 binaries/getmem.o
                0x0000000000101112                getmem
 .text          0x00000000001011d4        0xa binaries/getpid.o
                0x00000000001011d4                getpid
 .text          0x00000000001011de       0x66 binaries/getprio.o
                0x00000000001011de                getprio
 .text          0x0000000000101244       0xac binaries/getstk.o
                0x0000000000101244                getstk
 .text          0x00000000001012f0       0x32 binaries/gettime.o
                0x00000000001012f0                gettime
 .text          0x0000000000101322      0x198 binaries/getutime.o
                0x0000000000101322                getutime
 .text          0x00000000001014ba       0x56 binaries/init.o
                0x00000000001014ba                init
 .text          0x0000000000101510      0x246 binaries/initialize.o
                0x0000000000101510                nulluser
                0x000000000010170c                stop
                0x0000000000101730                delay
 .text          0x0000000000101756       0xa1 binaries/insert.o
                0x0000000000101756                insert
 .text          0x00000000001017f7       0xf4 binaries/insertd.o
                0x00000000001017f7                insertd
 .text          0x00000000001018eb        0xa binaries/ioerr.o
                0x00000000001018eb                ioerr
 .text          0x00000000001018f5        0xa binaries/ionull.o
                0x00000000001018f5                ionull
 .text          0x00000000001018ff      0x19d binaries/kill.o
                0x00000000001018ff                kill
 .text          0x0000000000101a9c       0xa9 binaries/kprintf.o
                0x0000000000101a9c                kputc
                0x0000000000101ace                console_init
                0x0000000000101b01                kgetc
                0x0000000000101b27                kprintf
 .text          0x0000000000101b45      0x196 binaries/main.o
                0x0000000000101b45                main
 .text          0x0000000000101cdb       0x99 binaries/mark.o
                0x0000000000101cdb                markinit
                0x0000000000101cfc                mark
 .text          0x0000000000101d74      0x1ff binaries/meminit.o
                0x0000000000101d74                meminit
                0x0000000000101f03                setsegs
 .text          0x0000000000101f73      0x122 binaries/mkbufpool.o
                0x0000000000101f73                mkbufpool
 .text          0x0000000000102095       0x63 binaries/newqueue.o
                0x0000000000102095                newqueue
 .text          0x00000000001020f8       0x5c binaries/open.o
                0x00000000001020f8                open
 .text          0x0000000000102154       0x20 binaries/panic.o
                0x0000000000102154                panic
 .text          0x0000000000102174      0x282 binaries/pci.o
                0x0000000000102174                pci_init
                0x000000000010217e                find_pci_device
                0x000000000010223d                pci_read_config_byte
                0x000000000010227b                pci_read_config_word
                0x00000000001022bb                pci_read_config_dword
                0x00000000001022f9                pci_write_config_byte
                0x0000000000102335                pci_write_config_word
                0x0000000000102372                pci_write_config_dword
                0x00000000001023ae                pci_get_dev_mmio_base_addr
 .text          0x00000000001023f6       0x50 binaries/platinit.o
                0x00000000001023f6                platinit
 .text          0x0000000000102446       0xa9 binaries/ptclear.o
                0x0000000000102446                _ptclear
 .text          0x00000000001024ef       0x85 binaries/ptcount.o
                0x00000000001024ef                ptcount
 .text          0x0000000000102574       0xfe binaries/ptcreate.o
                0x0000000000102574                ptcreate
 .text          0x0000000000102672       0x63 binaries/ptdelete.o
                0x0000000000102672                ptdelete
 .text          0x00000000001026d5       0x91 binaries/ptinit.o
                0x00000000001026d5                ptinit
 .text          0x0000000000102766       0xf5 binaries/ptrecv.o
                0x0000000000102766                ptrecv
 .text          0x000000000010285b       0x66 binaries/ptreset.o
                0x000000000010285b                ptreset
 .text          0x00000000001028c1      0x115 binaries/ptsend.o
                0x00000000001028c1                ptsend
 .text          0x00000000001029d6       0x64 binaries/putc.o
                0x00000000001029d6                putc
 .text          0x0000000000102a3a       0xb3 binaries/quark_irq.o
                0x0000000000102a3a                quark_irq_routing
 .text          0x0000000000102aed      0x19a binaries/quark_pdat.o
                0x0000000000102aed                get_quark_pdat_entry_data_by_id
                0x0000000000102bb7                get_quark_pdat_entry_data_by_desc
 .text          0x0000000000102c87       0xb9 binaries/queue.o
                0x0000000000102c87                enqueue
                0x0000000000102cf5                dequeue
 .text          0x0000000000102d40       0x5c binaries/read.o
                0x0000000000102d40                read
 .text          0x0000000000102d9c       0x6c binaries/ready.o
                0x0000000000102d9c                ready
 .text          0x0000000000102e08       0x6e binaries/receive.o
                0x0000000000102e08                receive
 .text          0x0000000000102e76       0x57 binaries/recvclr.o
                0x0000000000102e76                recvclr
 .text          0x0000000000102ecd       0xc8 binaries/recvtime.o
                0x0000000000102ecd                recvtime
 .text          0x0000000000102f95      0x150 binaries/resched.o
                0x0000000000102f95                resched
                0x0000000000103073                resched_cntl
 .text          0x00000000001030e5       0x90 binaries/resume.o
                0x00000000001030e5                resume
 .text          0x0000000000103175       0x59 binaries/seek.o
                0x0000000000103175                seek
 .text          0x00000000001031ce       0x51 binaries/semcount.o
                0x00000000001031ce                semcount
 .text          0x000000000010321f       0x93 binaries/semcreate.o
                0x000000000010321f                semcreate
 .text          0x00000000001032b2       0xd1 binaries/semdelete.o
                0x00000000001032b2                semdelete
 .text          0x0000000000103383       0xa8 binaries/semreset.o
                0x0000000000103383                semreset
 .text          0x000000000010342b       0xd1 binaries/send.o
                0x000000000010342b                send
 .text          0x00000000001034fc       0x95 binaries/signal.o
                0x00000000001034fc                signal
 .text          0x0000000000103591       0xc2 binaries/signaln.o
                0x0000000000103591                signaln
 .text          0x0000000000103653       0xc9 binaries/sleep.o
                0x0000000000103653                sleepms
                0x00000000001036e6                sleep
 .text          0x000000000010371c      0x1ad binaries/stacktrace.o
                0x000000000010371c                stacktrace
 .text          0x00000000001038c9       0xd3 binaries/suspend.o
                0x00000000001038c9                suspend
 .text          0x000000000010399c       0x9a binaries/unsleep.o
                0x000000000010399c                unsleep
 .text          0x0000000000103a36       0x19 binaries/userret.o
                0x0000000000103a36                userret
 .text          0x0000000000103a4f       0xb9 binaries/wait.o
                0x0000000000103a4f                wait
 .text          0x0000000000103b08       0x71 binaries/wakeup.o
                0x0000000000103b08                wakeup
 .text          0x0000000000103b79       0x5c binaries/write.o
                0x0000000000103b79                write
 .text          0x0000000000103bd5       0x1a binaries/xdone.o
                0x0000000000103bd5                xdone
 .text          0x0000000000103bef       0x26 binaries/yield.o
                0x0000000000103bef                yield
 .text          0x0000000000103c15       0x20 binaries/app1.o
                0x0000000000103c15                app1
 .text          0x0000000000103c35       0x72 binaries/app2.o
                0x0000000000103c35                app2
 .text          0x0000000000103ca7       0x57 binaries/app3.o
                0x0000000000103ca7                app3
 .text          0x0000000000103cfe       0x34 binaries/getppid.o
                0x0000000000103cfe                getppid
 .text          0x0000000000103d32       0x35 binaries/getpstate.o
                0x0000000000103d32                getpstate
 .text          0x0000000000103d67       0x2d binaries/mywelcomemsg.o
                0x0000000000103d67                mywelcomemsg
 .text          0x0000000000103d94        0xe binaries/host2netlb.o
                0x0000000000103d94                host2netlb
 .text          0x0000000000103da2       0x23 binaries/host2netlc.o
                0x0000000000103da2                host2netlc
 .text          0x0000000000103dc5      0x12c binaries/prntsegaddr.o
                0x0000000000103dc5                doit
                0x0000000000103e16                print_size
                0x0000000000103e35                prntsegaddr
 .text          0x0000000000103ef1       0xa5 binaries/stackdepth.o
                0x0000000000103ef1                stackdepth
 .text          0x0000000000103f96       0x24 binaries/stacktop.o
                0x0000000000103f96                stacktop
 .text          0x0000000000103fba       0x8a binaries/myappA.o
                0x0000000000103fba                myfuncA
                0x0000000000103fd6                myappA
 .text          0x0000000000104044       0x6d binaries/myhacker.o
                0x0000000000104044                myhacker
 .text          0x00000000001040b1       0x80 binaries/myvictim.o
                0x00000000001040b1                victim_sleeper
                0x00000000001040eb                myvictim
 .text          0x0000000000104131       0x5c binaries/myhackermalware.o
                0x0000000000104131                myhackermalware
 .text          0x000000000010418d       0x11 binaries/abs.o
                0x000000000010418d                abs
 .text          0x000000000010419e       0x84 binaries/atoi.o
                0x000000000010419e                atoi
 .text          0x0000000000104222       0x84 binaries/atol.o
                0x0000000000104222                atol
 .text          0x00000000001042a6       0x1a binaries/bzero.o
                0x00000000001042a6                bzero
 .text          0x00000000001042c0        0x0 binaries/ctype_.o
 .text          0x00000000001042c0      0x6bf binaries/doprnt.o
                0x0000000000104413                _doprnt
 .text          0x000000000010497f      0x5f2 binaries/doscan.o
                0x000000000010497f                _doscan
 .text          0x0000000000104f71      0x64e binaries/fdoprnt.o
                0x0000000000104ff6                _fdoprnt
 .text          0x00000000001055bf       0x1c binaries/fgetc.o
                0x00000000001055bf                fgetc
 .text          0x00000000001055db       0x61 binaries/fgets.o
                0x00000000001055db                fgets
 .text          0x000000000010563c       0x21 binaries/fprintf.o
                0x000000000010563c                fprintf
 .text          0x000000000010565d       0x27 binaries/fputc.o
                0x000000000010565d                fputc
 .text          0x0000000000105684       0x3a binaries/fputs.o
                0x0000000000105684                fputs
 .text          0x00000000001056be       0x6a binaries/fscanf.o
                0x00000000001056fc                fscanf
 .text          0x0000000000105728       0x26 binaries/getchar.o
                0x0000000000105728                getchar
 .text          0x000000000010574e       0x11 binaries/labs.o
                0x000000000010574e                labs
 .text          0x000000000010575f       0x36 binaries/memchr.o
                0x000000000010575f                memchr
 .text          0x0000000000105795       0x4a binaries/memcmp.o
                0x0000000000105795                memcmp
 .text          0x00000000001057df       0x26 binaries/memcpy.o
                0x00000000001057df                memcpy
 .text          0x0000000000105805       0x1f binaries/memset.o
                0x0000000000105805                memset
 .text          0x0000000000105824       0x37 binaries/printf.o
                0x0000000000105824                printf
 .text          0x000000000010585b       0x29 binaries/putchar.o
                0x000000000010585b                putchar
 .text          0x0000000000105884      0x1cc binaries/qsort.o
                0x0000000000105a28                qsort
 .text          0x0000000000105a50       0x4c binaries/rand.o
                0x0000000000105a50                srand
                0x0000000000105a5d                rand
 .text          0x0000000000105a9c       0x48 binaries/sprintf.o
                0x0000000000105ab5                sprintf
 .text          0x0000000000105ae4       0x5a binaries/sscanf.o
                0x0000000000105b14                sscanf
 .text          0x0000000000105b3e       0x2f binaries/strchr.o
                0x0000000000105b3e                strchr
 .text          0x0000000000105b6d       0x45 binaries/strcmp.o
                0x0000000000105b6d                strcmp
 .text          0x0000000000105bb2       0x1c binaries/strcpy.o
                0x0000000000105bb2                strcpy
 .text          0x0000000000105bce       0x20 binaries/strlen.o
                0x0000000000105bce                strlen
 .text          0x0000000000105bee       0x3d binaries/strncat.o
                0x0000000000105bee                strncat
 .text          0x0000000000105c2b       0x3b binaries/strncmp.o
                0x0000000000105c2b                strncmp
 .text          0x0000000000105c66       0x59 binaries/strncpy.o
                0x0000000000105c66                strncpy
 .text          0x0000000000105cbf       0x38 binaries/strnlen.o
                0x0000000000105cbf                strnlen
 .text          0x0000000000105cf7       0x32 binaries/strrchr.o
                0x0000000000105cf7                strrchr
 .text          0x0000000000105d29       0x68 binaries/strstr.o
                0x0000000000105d29                strstr
 .text          0x0000000000105d91      0x112 binaries/ttycontrol.o
                0x0000000000105d91                ttycontrol
 .text          0x0000000000105ea3       0xb0 binaries/ttygetc.o
                0x0000000000105ea3                ttygetc
 .text          0x0000000000105f53      0x4a3 binaries/ttyhandle_in.o
                0x0000000000106017                ttyhandle_in
 .text          0x00000000001063f6      0x178 binaries/ttyhandle_out.o
                0x00000000001063f6                ttyhandle_out
 .text          0x000000000010656e       0x85 binaries/ttyhandler.o
                0x000000000010656e                ttyhandler
 .text          0x00000000001065f3      0x15d binaries/ttyinit.o
                0x00000000001065f3                ttyinit
 .text          0x0000000000106750        0xf binaries/ttykickout.o
                0x0000000000106750                ttykickout
 .text          0x000000000010675f       0xb2 binaries/ttyputc.o
                0x000000000010675f                ttyputc
 .text          0x0000000000106811       0xff binaries/ttyread.o
                0x0000000000106811                ttyread
 .text          0x0000000000106910       0x4d binaries/ttywrite.o
                0x0000000000106910                ttywrite
 .text          0x000000000010695d      0x129 binaries/mount.o
                0x000000000010695d                namlen
                0x0000000000106999                mount
 .text          0x0000000000106a86      0x1c4 binaries/naminit.o
                0x0000000000106a86                naminit
 .text          0x0000000000106c4a      0x1fe binaries/nammap.o
                0x0000000000106c4a                namrepl
                0x0000000000106d6d                namcpy
                0x0000000000106dbb                nammap
 .text          0x0000000000106e48       0x44 binaries/namopen.o
                0x0000000000106e48                namopen
 .text          0x0000000000106e8c       0xd4 binaries/colon2mac.o
                0x0000000000106e8c                colon2mac
 .text          0x0000000000106f60       0x7d binaries/ethcontrol.o
                0x0000000000106f60                ethcontrol
 .text          0x0000000000106fdd      0x17e binaries/ethhandler.o
                0x0000000000106fdd                ethhandler
 .text          0x000000000010715b      0x548 binaries/ethinit.o
                0x000000000010715b                eth_phy_read
                0x000000000010719b                eth_phy_write
                0x00000000001071dc                eth_phy_reset
                0x00000000001072b6                ethinit
 .text          0x00000000001076a3      0x107 binaries/ethmcast.o
                0x00000000001076a3                ethmcast_add
                0x00000000001076ef                ethmcast_remove
 .text          0x00000000001077aa      0x172 binaries/ethread.o
                0x00000000001077aa                ethread
 .text          0x000000000010791c       0xc1 binaries/ethwrite.o
                0x000000000010791c                ethwrite
 .text          0x00000000001079dd       0x68 binaries/rdsbufalloc.o
                0x00000000001079dd                rdsbufalloc
 .text          0x0000000000107a45       0xd6 binaries/rdsclose.o
                0x0000000000107a45                rdsclose
 .text          0x0000000000107b1b      0x1df binaries/rdscomm.o
                0x0000000000107b1b                rdscomm
 .text          0x0000000000107cfa      0x1c4 binaries/rdscontrol.o
                0x0000000000107cfa                rdscontrol
 .text          0x0000000000107ebe      0x1f7 binaries/rdsinit.o
                0x0000000000107ebe                rdsinit
 .text          0x00000000001080b5      0x199 binaries/rdsopen.o
                0x00000000001080b5                rdsopen
 .text          0x000000000010824e      0x2c5 binaries/rdsprocess.o
                0x000000000010824e                rdsprocess
 .text          0x0000000000108513      0x1d8 binaries/rdsread.o
                0x0000000000108513                rdsread
 .text          0x00000000001086eb      0x1ae binaries/rdswrite.o
                0x00000000001086eb                rdswrite
 .text          0x0000000000108899        0xa binaries/ramclose.o
                0x0000000000108899                ramclose
 .text          0x00000000001088a3       0x35 binaries/raminit.o
                0x00000000001088a3                raminit
 .text          0x00000000001088d8        0xa binaries/ramopen.o
                0x00000000001088d8                ramopen
 .text          0x00000000001088e2       0x26 binaries/ramread.o
                0x00000000001088e2                ramread
 .text          0x0000000000108908       0x26 binaries/ramwrite.o
                0x0000000000108908                ramwrite
 .text          0x000000000010892e       0x87 binaries/lfdballoc.o
                0x000000000010892e                lfdballoc
 .text          0x00000000001089b5       0x49 binaries/lfdbfree.o
                0x00000000001089b5                lfdbfree
 .text          0x00000000001089fe       0xa1 binaries/lfflush.o
                0x00000000001089fe                lfflush
 .text          0x0000000000108a9f       0x82 binaries/lfgetmode.o
                0x0000000000108a9f                lfgetmode
 .text          0x0000000000108b21       0x60 binaries/lfiballoc.o
                0x0000000000108b21                lfiballoc
 .text          0x0000000000108b81       0x27 binaries/lfibclear.o
                0x0000000000108b81                lfibclear
 .text          0x0000000000108ba8       0x6c binaries/lfibget.o
                0x0000000000108ba8                lfibget
 .text          0x0000000000108c14       0x88 binaries/lfibput.o
                0x0000000000108c14                lfibput
 .text          0x0000000000108c9c       0xa4 binaries/lflclose.o
                0x0000000000108c9c                lflclose
 .text          0x0000000000108d40       0xc2 binaries/lflcontrol.o
                0x0000000000108d40                lflcontrol
 .text          0x0000000000108e02       0xfd binaries/lflgetc.o
                0x0000000000108e02                lflgetc
 .text          0x0000000000108eff       0xe7 binaries/lflinit.o
                0x0000000000108eff                lflinit
 .text          0x0000000000108fe6      0x12f binaries/lflputc.o
                0x0000000000108fe6                lflputc
 .text          0x0000000000109115       0x6b binaries/lflread.o
                0x0000000000109115                lflread
 .text          0x0000000000109180       0xbd binaries/lflseek.o
                0x0000000000109180                lflseek
 .text          0x000000000010923d       0x52 binaries/lflwrite.o
                0x000000000010923d                lflwrite
 .text          0x000000000010928f      0x114 binaries/lfsckfmt.o
                0x000000000010928f                lfsckfmt
 .text          0x00000000001093a3      0x1e6 binaries/lfscreate.o
                0x00000000001093a3                lfscreate
 .text          0x0000000000109589      0x1b1 binaries/lfsetup.o
                0x0000000000109589                lfsetup
 .text          0x000000000010973a       0x45 binaries/lfsinit.o
                0x000000000010973a                lfsinit
 .text          0x000000000010977f      0x302 binaries/lfsopen.o
                0x000000000010977f                lfsopen
 .text          0x0000000000109a81      0x112 binaries/lftruncate.o
                0x0000000000109a81                lftruncate
 .text          0x0000000000109b93       0x69 binaries/rflclose.o
                0x0000000000109b93                rflclose
 .text          0x0000000000109bfc       0x29 binaries/rflgetc.o
                0x0000000000109bfc                rflgetc
 .text          0x0000000000109c25       0x6c binaries/rflinit.o
                0x0000000000109c25                rflinit
 .text          0x0000000000109c91       0x29 binaries/rflputc.o
                0x0000000000109c91                rflputc
 .text          0x0000000000109cba      0x2b6 binaries/rflread.o
                0x0000000000109cba                rflread
 .text          0x0000000000109f70       0x68 binaries/rflseek.o
                0x0000000000109f70                rflseek
 .text          0x0000000000109fd8      0x2fa binaries/rflwrite.o
                0x0000000000109fd8                rflwrite
 .text          0x000000000010a2d2      0x17d binaries/rfscomm.o
                0x000000000010a2d2                rfscomm
 .text          0x000000000010a44f      0x22b binaries/rfscontrol.o
                0x000000000010a44f                rfscontrol
 .text          0x000000000010a67a       0x82 binaries/rfsgetmode.o
                0x000000000010a67a                rfsgetmode
 .text          0x000000000010a6fc       0x7e binaries/rfsinit.o
                0x000000000010a6fc                rfsinit
 .text          0x000000000010a77a       0xad binaries/rfsndmsg.o
                0x000000000010a77a                rfsndmsg
 .text          0x000000000010a827      0x243 binaries/rfsopen.o
                0x000000000010a827                rfsopen
 .text          0x000000000010aa6a      0x626 binaries/arp.o
                0x000000000010aa6a                arp_init
                0x000000000010aa86                arp_alloc
                0x000000000010ab2d                arp_ntoh
                0x000000000010ab9a                arp_hton
                0x000000000010ac07                arp_resolve
                0x000000000010ae58                arp_in
 .text          0x000000000010b090      0x5ed binaries/dhcp.o
                0x000000000010b090                dhcp_get_opt_val
                0x000000000010b0e4                dhcp_bld_bootp_msg
                0x000000000010b1b6                dhcp_bld_disc
                0x000000000010b208                dhcp_bld_req
                0x000000000010b2a3                getlocalip
 .text          0x000000000010b67d       0xda binaries/dot2ip.o
                0x000000000010b67d                dot2ip
 .text          0x000000000010b757      0x38c binaries/hexdump.o
                0x000000000010b757                hexdump
                0x000000000010b8b1                hexadump
 .text          0x000000000010bae3      0x6f6 binaries/icmp.o
                0x000000000010bae3                icmp_init
                0x000000000010baff                icmp_register
                0x000000000010bbbd                icmp_recv
                0x000000000010bd60                icmp_mkpkt
                0x000000000010be2d                icmp_in
                0x000000000010bfc7                icmp_send
                0x000000000010c036                icmp_release
                0x000000000010c151                icmp_cksum
                0x000000000010c1ab                icmp_hton
                0x000000000010c1c2                icmp_ntoh
 .text          0x000000000010c1d9      0x5e2 binaries/ip.o
                0x000000000010c1d9                ip_local
                0x000000000010c219                ipcksum
                0x000000000010c26f                ip_ntoh
                0x000000000010c2dc                ip_in
                0x000000000010c401                ip_hton
                0x000000000010c46e                ip_out
                0x000000000010c524                ip_send
                0x000000000010c62f                ipout
                0x000000000010c722                ip_enqueue
 .text          0x000000000010c7bb      0x1b2 binaries/net.o
                0x000000000010c7bb                net_init
                0x000000000010c8b2                eth_hton
                0x000000000010c8bf                eth_ntoh
                0x000000000010c8cc                netin
 .text          0x000000000010c96d       0xb9 binaries/netstart.o
                0x000000000010c96d                netstart
 .text          0x000000000010ca26      0xa30 binaries/pdump.o
                0x000000000010ca26                pdump
                0x000000000010d00b                pdumph
 .text          0x000000000010d456      0x5b8 binaries/tftp.o
                0x000000000010d456                tftp_send1
                0x000000000010d56a                tftpget_mb
                0x000000000010d9eb                tftpget
 .text          0x000000000010da0e      0xa17 binaries/udp.o
                0x000000000010da0e                udp_init
                0x000000000010da4f                udp_in
                0x000000000010db78                udp_register
                0x000000000010dc89                udp_recv
                0x000000000010de22                udp_recvaddr
                0x000000000010dfcf                udp_send
                0x000000000010e17d                udp_sendto
                0x000000000010e2e6                udp_release
                0x000000000010e3f7                udp_ntoh
                0x000000000010e40e                udp_hton
 .text          0x000000000010e425      0x11f binaries/addargs.o
                0x000000000010e425                addargs
 .text          0x000000000010e544      0x1db binaries/lexan.o
                0x000000000010e544                lexan
 .text          0x000000000010e71f      0x64d binaries/shell.o
                0x000000000010e71f                shell
 .text          0x000000000010ed6c       0x59 binaries/xsh_argecho.o
                0x000000000010ed6c                xsh_argecho
 .text          0x000000000010edc5      0x1fb binaries/xsh_arp.o
                0x000000000010edc5                xsh_arp
 .text          0x000000000010efc0      0x214 binaries/xsh_cat.o
                0x000000000010efc0                xsh_cat
 .text          0x000000000010f1d4       0x58 binaries/xsh_clear.o
                0x000000000010f1d4                xsh_clear
 .text          0x000000000010f22c      0x2a8 binaries/xsh_date.o
                0x000000000010f22c                xsh_date
 .text          0x000000000010f4d4       0x89 binaries/xsh_devdump.o
                0x000000000010f4d4                xsh_devdump
 .text          0x000000000010f55d       0x63 binaries/xsh_echo.o
                0x000000000010f55d                xsh_echo
 .text          0x000000000010f5c0        0xa binaries/xsh_exit.o
                0x000000000010f5c0                xsh_exit
 .text          0x000000000010f5ca      0x335 binaries/xsh_help.o
                0x000000000010f5ca                xsh_help
 .text          0x000000000010f8ff      0x38b binaries/xsh_ipaddr.o
                0x000000000010f8ff                xsh_ipaddr
 .text          0x000000000010fc8a      0x1de binaries/xsh_kill.o
                0x000000000010fc8a                xsh_kill
 .text          0x000000000010fe68      0x3f3 binaries/xsh_memdump.o
                0x000000000010ff2e                xsh_memdump
 .text          0x000000000011025b      0x1de binaries/xsh_memstat.o
                0x000000000011025b                xsh_memstat
 .text          0x0000000000110439      0x2c7 binaries/xsh_ping.o
                0x0000000000110439                xsh_ping
 .text          0x0000000000110700      0x1ae binaries/xsh_ps.o
                0x0000000000110700                xsh_ps
 .text          0x00000000001108ae      0x1d3 binaries/xsh_sleep.o
                0x00000000001108ae                xsh_sleep
 .text          0x0000000000110a81      0x1d5 binaries/xsh_udpdump.o
                0x0000000000110a81                xsh_udpdump
 .text          0x0000000000110c56      0x40a binaries/xsh_udpecho.o
                0x0000000000110c56                xsh_udpecho
 .text          0x0000000000111060      0x232 binaries/xsh_udpeserver.o
                0x0000000000111060                xsh_udpeserver
 .text          0x0000000000111292      0x1c2 binaries/xsh_uptime.o
                0x0000000000111292                xsh_uptime
 .text          0x0000000000111454        0xe binaries/clkdisp.o
                0x0000000000111454                clkdisp
 .text          0x0000000000111462       0x19 binaries/ctxsw.o
                0x0000000000111462                ctxsw
 .text          0x000000000011147b      0x36b binaries/intr.o
                0x000000000011147b                disable
                0x0000000000111484                restore
                0x0000000000111492                enable
                0x0000000000111494                pause
                0x000000000011149b                halt
                0x00000000001114a1                spurious_irq7
                0x00000000001114a6                spurious_irq15
                0x00000000001114b5                _Xint0
                0x00000000001114c0                _Xint1
                0x00000000001114cb                _Xint2
                0x00000000001114d6                _Xint3
                0x00000000001114e1                _Xint4
                0x00000000001114ec                _Xint5
                0x00000000001114f7                _Xint6
                0x0000000000111502                _Xint7
                0x000000000011150d                _Xint8
                0x0000000000111518                _Xint9
                0x0000000000111523                _Xint10
                0x000000000011152e                _Xint11
                0x000000000011153c                _Xint12
                0x000000000011154a                _Xint13
                0x0000000000111558                _Xint14
                0x0000000000111566                _Xint15
                0x0000000000111574                _Xint16
                0x0000000000111582                _Xint17
                0x0000000000111590                _Xint18
                0x000000000011159e                _Xint19
                0x00000000001115ac                _Xint20
                0x00000000001115ba                _Xint21
                0x00000000001115c8                _Xint22
                0x00000000001115d6                _Xint23
                0x00000000001115e4                _Xint24
                0x00000000001115f2                _Xint25
                0x0000000000111600                _Xint26
                0x000000000011160e                _Xint27
                0x000000000011161c                _Xint28
                0x000000000011162a                _Xint29
                0x0000000000111638                _Xint30
                0x0000000000111646                _Xint31
                0x0000000000111654                _Xint32
                0x0000000000111662                _Xint33
                0x0000000000111670                _Xint34
                0x000000000011167e                _Xint35
                0x000000000011168c                _Xint36
                0x000000000011169a                _Xint37
                0x00000000001116a8                _Xint38
                0x00000000001116b6                _Xint39
                0x00000000001116c4                _Xint40
                0x00000000001116d2                _Xint41
                0x00000000001116e0                _Xint42
                0x00000000001116ee                _Xint43
                0x00000000001116fc                _Xint44
                0x000000000011170a                _Xint45
                0x0000000000111718                _Xint46
                0x0000000000111726                defevec
 .text          0x00000000001117e6        0x3 binaries/host2netla.o
 .text          0x00000000001117e9        0xf binaries/ttydispatch.o
                0x00000000001117e9                ttydispatch
 .text          0x00000000001117f8       0x13 binaries/ethdispatch.o
                0x00000000001117f8                ethdispatch
 *(.rodata .rodata.*)
 .rodata.str1.1
                0x000000000011180b       0x54 binaries/ascdate.o
 *fill*         0x000000000011185f        0x1 
 .rodata.str1.4
                0x0000000000111860       0x22 binaries/ascdate.o
 .rodata.str1.1
                0x0000000000111882       0x5f binaries/conf.o
 *fill*         0x00000000001118e1        0x3 
 .rodata.str1.4
                0x00000000001118e4       0x4f binaries/early_imr.o
 *fill*         0x0000000000111933        0x1 
 .rodata        0x0000000000111934       0x33 binaries/early_imr.o
 .rodata.str1.1
                0x0000000000111967      0x20c binaries/evec.o
 *fill*         0x0000000000111b73        0x1 
 .rodata.str1.4
                0x0000000000111b74       0x23 binaries/evec.o
 .rodata.str1.1
                0x0000000000111b97        0xb binaries/getutime.o
 *fill*         0x0000000000111ba2        0x2 
 .rodata.str1.4
                0x0000000000111ba4       0x54 binaries/getutime.o
 .rodata.str1.1
                0x0000000000111bf8       0x63 binaries/initialize.o
                                         0x67 (size before relaxing)
 *fill*         0x0000000000111c5b        0x1 
 .rodata.str1.4
                0x0000000000111c5c       0xd0 binaries/initialize.o
 .rodata        0x0000000000111d2c       0x20 binaries/kill.o
 .rodata.str1.1
                0x0000000000111d4c       0x5e binaries/main.o
 *fill*         0x0000000000111daa        0x2 
 .rodata.str1.4
                0x0000000000111dac       0xa6 binaries/main.o
 *fill*         0x0000000000111e52        0x2 
 .rodata.str1.4
                0x0000000000111e54       0x23 binaries/meminit.o
 .rodata.str1.1
                0x0000000000111e77       0x1b binaries/meminit.o
 .rodata.str1.1
                0x0000000000111e92        0xf binaries/panic.o
 .rodata.str1.1
                0x0000000000111ea1       0x1c binaries/ptinit.o
 *fill*         0x0000000000111ebd        0x3 
 .rodata.str1.4
                0x0000000000111ec0       0x25 binaries/ptsend.o
 .rodata.str1.1
                0x0000000000111ee5       0x22 binaries/quark_pdat.o
 *fill*         0x0000000000111f07        0x1 
 .rodata.str1.4
                0x0000000000111f08       0x63 binaries/stacktrace.o
 .rodata.str1.1
                0x0000000000111f6b       0x52 binaries/stacktrace.o
 *fill*         0x0000000000111fbd        0x3 
 .rodata.str1.4
                0x0000000000111fc0       0x27 binaries/xdone.o
 .rodata.str1.1
                0x0000000000111fe7       0x1d binaries/app1.o
 .rodata.str1.1
                0x0000000000112004       0x50 binaries/app2.o
 .rodata.str1.1
                0x0000000000112054       0x2f binaries/app3.o
 *fill*         0x0000000000112083        0x1 
 .rodata.str1.4
                0x0000000000112084       0x2b binaries/app3.o
 *fill*         0x00000000001120af        0x1 
 .rodata.str1.4
                0x00000000001120b0       0x65 binaries/mywelcomemsg.o
 *fill*         0x0000000000112115        0x3 
 .rodata.str1.4
                0x0000000000112118       0x43 binaries/prntsegaddr.o
 .rodata.str1.1
                0x000000000011215b       0x76 binaries/prntsegaddr.o
                                         0x78 (size before relaxing)
 *fill*         0x00000000001121d1        0x3 
 .rodata.str1.4
                0x00000000001121d4       0x9a binaries/stackdepth.o
 *fill*         0x000000000011226e        0x2 
 .rodata.str1.4
                0x0000000000112270       0x34 binaries/stacktop.o
 .rodata.str1.1
                0x00000000001122a4       0x1b binaries/myappA.o
 *fill*         0x00000000001122bf        0x1 
 .rodata.str1.4
                0x00000000001122c0       0x8f binaries/myappA.o
 .rodata.str1.1
                0x000000000011234f       0x36 binaries/myhacker.o
 *fill*         0x0000000000112385        0x3 
 .rodata.str1.4
                0x0000000000112388       0x2d binaries/myhacker.o
 .rodata.str1.1
                0x00000000001123b5       0x4e binaries/myvictim.o
 *fill*         0x0000000000112403        0x1 
 .rodata.str1.4
                0x0000000000112404       0x45 binaries/myvictim.o
 *fill*         0x0000000000112449        0x3 
 .rodata.str1.4
                0x000000000011244c       0x8a binaries/myhackermalware.o
 *fill*         0x00000000001124d6        0xa 
 .rodata        0x00000000001124e0       0x81 binaries/ctype_.o
                0x00000000001124e0                _ctype_
 .rodata.str1.1
                0x0000000000112561       0x29 binaries/doprnt.o
 *fill*         0x000000000011258a        0x2 
 .rodata        0x000000000011258c       0xc4 binaries/doprnt.o
 .rodata        0x0000000000112650       0x98 binaries/doscan.o
 .rodata.str1.1
                0x00000000001126e8       0x29 binaries/fdoprnt.o
 .rodata        0x00000000001126e8       0x84 binaries/fdoprnt.o
 .rodata        0x000000000011276c       0x20 binaries/ttycontrol.o
 .rodata.str1.4
                0x000000000011278c       0x4c binaries/naminit.o
 .rodata.str1.1
                0x00000000001127d8       0x32 binaries/naminit.o
                                         0x35 (size before relaxing)
 .rodata.str1.1
                0x000000000011280a       0x15 binaries/ethinit.o
 *fill*         0x000000000011281f        0x1 
 .rodata.str1.4
                0x0000000000112820       0x2e binaries/ethinit.o
 *fill*         0x000000000011284e        0x2 
 .rodata.str1.4
                0x0000000000112850       0x2c binaries/rdsbufalloc.o
 .rodata.str1.4
                0x000000000011287c       0x76 binaries/rdscomm.o
 *fill*         0x00000000001128f2        0x2 
 .rodata.str1.4
                0x00000000001128f4       0x48 binaries/rdscontrol.o
 .rodata.str1.4
                0x000000000011293c       0x7e binaries/rdsinit.o
 .rodata.str1.1
                0x00000000001129ba       0x18 binaries/rdsinit.o
 *fill*         0x00000000001129d2        0x2 
 .rodata.str1.4
                0x00000000001129d4       0x22 binaries/rdsopen.o
 *fill*         0x00000000001129f6        0x2 
 .rodata.str1.4
                0x00000000001129f8       0x4d binaries/rdsprocess.o
 .rodata.str1.1
                0x0000000000112a45        0x9 binaries/raminit.o
 .rodata.str1.1
                0x0000000000112a4e       0x13 binaries/lfdballoc.o
 *fill*         0x0000000000112a61        0x3 
 .rodata.str1.4
                0x0000000000112a64       0x23 binaries/lfdballoc.o
 .rodata.str1.1
                0x0000000000112a87       0x14 binaries/lfiballoc.o
 *fill*         0x0000000000112a9b        0x1 
 .rodata.str1.4
                0x0000000000112a9c       0x23 binaries/lflcontrol.o
 .rodata.str1.1
                0x0000000000112abf       0x64 binaries/lfsckfmt.o
 *fill*         0x0000000000112b23        0x1 
 .rodata.str1.4
                0x0000000000112b24       0x51 binaries/lfsckfmt.o
 *fill*         0x0000000000112b75        0x3 
 .rodata.str1.4
                0x0000000000112b78       0x21 binaries/rflread.o
 .rodata.str1.4
                0x0000000000112b99       0x21 binaries/rflwrite.o
 *fill*         0x0000000000112b99        0x3 
 .rodata.str1.4
                0x0000000000112b9c       0x75 binaries/rfscomm.o
 *fill*         0x0000000000112c11        0x3 
 .rodata.str1.4
                0x0000000000112c14       0x23 binaries/rfscontrol.o
 *fill*         0x0000000000112c37        0x1 
 .rodata        0x0000000000112c38       0x18 binaries/rfscontrol.o
 .rodata.str1.1
                0x0000000000112c50       0x10 binaries/rfsinit.o
 .rodata.str1.4
                0x0000000000112c50       0x57 binaries/rfsinit.o
 *fill*         0x0000000000112ca7        0x1 
 .rodata.str1.4
                0x0000000000112ca8       0x2a binaries/rfsndmsg.o
 .rodata.str1.4
                0x0000000000112cd2       0x22 binaries/rfsopen.o
 .rodata.str1.1
                0x0000000000112cd2       0x19 binaries/arp.o
 *fill*         0x0000000000112ceb        0x1 
 .rodata.str1.4
                0x0000000000112cec       0x21 binaries/arp.o
 *fill*         0x0000000000112d0d        0x3 
 .rodata.str1.4
                0x0000000000112d10       0xa6 binaries/dhcp.o
 .rodata.str1.1
                0x0000000000112db6       0x4a binaries/dhcp.o
 .rodata.str1.1
                0x0000000000112e00       0x5a binaries/hexdump.o
                                         0x61 (size before relaxing)
 *fill*         0x0000000000112e5a        0x2 
 .rodata.str1.4
                0x0000000000112e5c       0x67 binaries/hexdump.o
 *fill*         0x0000000000112ec3        0x1 
 .rodata.str1.4
                0x0000000000112ec4       0x29 binaries/icmp.o
 .rodata.str1.1
                0x0000000000112eed       0x4e binaries/ip.o
 *fill*         0x0000000000112f3b        0x1 
 .rodata.str1.4
                0x0000000000112f3c       0x20 binaries/ip.o
 .rodata.str1.4
                0x0000000000112f5c       0x28 binaries/net.o
 .rodata.str1.1
                0x0000000000112f84       0x27 binaries/net.o
 *fill*         0x0000000000112fab        0x1 
 .rodata.str1.4
                0x0000000000112fac       0xcf binaries/netstart.o
 .rodata.str1.1
                0x000000000011307b      0x141 binaries/pdump.o
                                        0x14b (size before relaxing)
 .rodata.str1.4
                0x00000000001131bc      0x126 binaries/pdump.o
 *fill*         0x00000000001132e2        0x2 
 .rodata.str1.4
                0x00000000001132e4      0x148 binaries/tftp.o
 .rodata.str1.1
                0x000000000011342c        0x6 binaries/tftp.o
                                          0xa (size before relaxing)
 .rodata.str1.1
                0x0000000000113432       0xe3 binaries/shell.o
                                         0xff (size before relaxing)
 *fill*         0x0000000000113515        0x3 
 .rodata.str1.4
                0x0000000000113518      0x1c4 binaries/shell.o
 *fill*         0x00000000001136dc        0x4 
 .rodata        0x00000000001136e0       0xfc binaries/shell.o
                0x00000000001136e0                cmdtab
 .rodata.str1.1
                0x00000000001137dc       0x26 binaries/xsh_argecho.o
                                         0x28 (size before relaxing)
 .rodata.str1.1
                0x0000000000113802       0x70 binaries/xsh_arp.o
                                         0x72 (size before relaxing)
 *fill*         0x0000000000113872        0x2 
 .rodata.str1.4
                0x0000000000113874       0xb4 binaries/xsh_arp.o
 .rodata.str1.1
                0x0000000000113928       0x2d binaries/xsh_cat.o
                                         0x4f (size before relaxing)
 *fill*         0x0000000000113955        0x3 
 .rodata.str1.4
                0x0000000000113958       0x52 binaries/xsh_cat.o
                                         0x79 (size before relaxing)
 .rodata.str1.1
                0x00000000001139aa       0x15 binaries/xsh_clear.o
 .rodata.str1.1
                0x00000000001139bf       0x46 binaries/xsh_date.o
                                         0x5f (size before relaxing)
 *fill*         0x0000000000113a05        0x3 
 .rodata.str1.4
                0x0000000000113a08      0x163 binaries/xsh_date.o
 .rodata.str1.1
                0x0000000000113b6b       0x5d binaries/xsh_devdump.o
 .rodata.str1.1
                0x0000000000113bc8        0x4 binaries/xsh_echo.o
                                          0x9 (size before relaxing)
 .rodata.str1.1
                0x0000000000113bcc       0x65 binaries/xsh_help.o
                                         0xa3 (size before relaxing)
 *fill*         0x0000000000113c31        0x3 
 .rodata.str1.4
                0x0000000000113c34       0x7c binaries/xsh_help.o
                                         0xc6 (size before relaxing)
 .rodata.str1.1
                0x0000000000113cb0       0x9c binaries/xsh_ipaddr.o
                                         0xf8 (size before relaxing)
 .rodata.str1.4
                0x0000000000113d4c       0x4d binaries/xsh_ipaddr.o
                                         0x99 (size before relaxing)
 .rodata.str1.1
                0x0000000000113d99       0x78 binaries/xsh_kill.o
                                         0x97 (size before relaxing)
 *fill*         0x0000000000113e11        0x3 
 .rodata.str1.4
                0x0000000000113e14       0x4a binaries/xsh_kill.o
                                         0x96 (size before relaxing)
 .rodata.str1.1
                0x0000000000113e5e       0x84 binaries/xsh_memdump.o
                                         0xa8 (size before relaxing)
 *fill*         0x0000000000113ee2        0x2 
 .rodata.str1.4
                0x0000000000113ee4      0x15a binaries/xsh_memdump.o
                                        0x1aa (size before relaxing)
 .rodata.str1.1
                0x000000000011403e       0x40 binaries/xsh_memstat.o
                                         0x79 (size before relaxing)
 *fill*         0x000000000011407e        0x2 
 .rodata.str1.4
                0x0000000000114080      0x187 binaries/xsh_memstat.o
                                        0x1af (size before relaxing)
 .rodata.str1.1
                0x0000000000114207       0x90 binaries/xsh_ping.o
                                         0xaf (size before relaxing)
 *fill*         0x0000000000114297        0x1 
 .rodata.str1.4
                0x0000000000114298       0x77 binaries/xsh_ping.o
                                         0xc6 (size before relaxing)
 .rodata.str1.1
                0x000000000011430f       0x74 binaries/xsh_ps.o
                                         0xd5 (size before relaxing)
 *fill*         0x0000000000114383        0x1 
 .rodata.str1.4
                0x0000000000114384       0x80 binaries/xsh_ps.o
                                         0xd0 (size before relaxing)
 *fill*         0x0000000000114404       0x1c 
 .rodata        0x0000000000114420       0x20 binaries/xsh_ps.o
 .rodata.str1.1
                0x0000000000114440       0x31 binaries/xsh_sleep.o
                                         0x72 (size before relaxing)
 *fill*         0x0000000000114471        0x3 
 .rodata.str1.4
                0x0000000000114474       0x2a binaries/xsh_sleep.o
                                         0x7a (size before relaxing)
 .rodata.str1.1
                0x000000000011449e       0x6b binaries/xsh_udpdump.o
                                         0xd2 (size before relaxing)
 *fill*         0x0000000000114509        0x3 
 .rodata.str1.4
                0x000000000011450c       0x94 binaries/xsh_udpdump.o
                                         0xe4 (size before relaxing)
 .rodata.str1.1
                0x00000000001145a0       0xdb binaries/xsh_udpecho.o
                                         0xfa (size before relaxing)
 *fill*         0x000000000011467b        0x1 
 .rodata.str1.4
                0x000000000011467c       0xc7 binaries/xsh_udpecho.o
                                        0x116 (size before relaxing)
 .rodata.str1.1
                0x0000000000114743       0x66 binaries/xsh_udpeserver.o
                                         0x8f (size before relaxing)
 *fill*         0x00000000001147a9        0x3 
 .rodata.str1.4
                0x00000000001147ac       0x29 binaries/xsh_udpeserver.o
                                         0x9f (size before relaxing)
 .rodata.str1.1
                0x00000000001147d5       0x49 binaries/xsh_uptime.o
                                         0x8c (size before relaxing)
 *fill*         0x000000000011481e        0x2 
 .rodata.str1.4
                0x0000000000114820       0x28 binaries/xsh_uptime.o
                                         0x76 (size before relaxing)
                0x0000000000114848                etext = ABSOLUTE (.)
                0x0000000000115000                . = ALIGN (0x1000)
 *fill*         0x0000000000114848      0x7b8 

.eh_frame       0x0000000000115000     0x320c
 .eh_frame      0x0000000000115000       0x48 binaries/ascdate.o
 .eh_frame      0x0000000000115048       0x20 binaries/bufinit.o
                                         0x38 (size before relaxing)
 .eh_frame      0x0000000000115068       0x2c binaries/chprio.o
                                         0x44 (size before relaxing)
 .eh_frame      0x0000000000115094       0x20 binaries/clkhandler.o
                                         0x38 (size before relaxing)
 .eh_frame      0x00000000001150b4       0x20 binaries/clkinit.o
                                         0x38 (size before relaxing)
 .eh_frame      0x00000000001150d4       0x28 binaries/close.o
                                         0x40 (size before relaxing)
 .eh_frame      0x00000000001150fc       0x28 binaries/control.o
                                         0x40 (size before relaxing)
 .eh_frame      0x0000000000115124       0x30 binaries/create.o
                                         0x48 (size before relaxing)
 .eh_frame      0x0000000000115154       0x94 binaries/early_imr.o
                                         0xac (size before relaxing)
 .eh_frame      0x00000000001151e8       0x94 binaries/evec.o
                                         0xac (size before relaxing)
 .eh_frame      0x000000000011527c       0x2c binaries/freebuf.o
                                         0x44 (size before relaxing)
 .eh_frame      0x00000000001152a8       0x2c binaries/freemem.o
                                         0x44 (size before relaxing)
 .eh_frame      0x00000000001152d4       0x2c binaries/getbuf.o
                                         0x44 (size before relaxing)
 .eh_frame      0x0000000000115300       0x28 binaries/getc.o
                                         0x40 (size before relaxing)
 .eh_frame      0x0000000000115328       0x2c binaries/getdev.o
                                         0x44 (size before relaxing)
 .eh_frame      0x0000000000115354       0x64 binaries/getitem.o
                                         0x7c (size before relaxing)
 .eh_frame      0x00000000001153b8       0x28 binaries/getmem.o
                                         0x40 (size before relaxing)
 .eh_frame      0x00000000001153e0       0x20 binaries/getpid.o
                                         0x38 (size before relaxing)
 .eh_frame      0x0000000000115400       0x24 binaries/getprio.o
                                         0x3c (size before relaxing)
 .eh_frame      0x0000000000115424       0x2c binaries/getstk.o
                                         0x44 (size before relaxing)
 .eh_frame      0x0000000000115450       0x20 binaries/gettime.o
                                         0x38 (size before relaxing)
 .eh_frame      0x0000000000115470       0x24 binaries/getutime.o
                                         0x3c (size before relaxing)
 .eh_frame      0x0000000000115494       0x28 binaries/init.o
                                         0x40 (size before relaxing)
 .eh_frame      0x00000000001154bc       0x5c binaries/initialize.o
                                         0x74 (size before relaxing)
 .eh_frame      0x0000000000115518       0x28 binaries/insert.o
                                         0x40 (size before relaxing)
 .eh_frame      0x0000000000115540       0x2c binaries/insertd.o
                                         0x44 (size before relaxing)
 .eh_frame      0x000000000011556c       0x20 binaries/ioerr.o
                                         0x38 (size before relaxing)
 .eh_frame      0x000000000011558c       0x20 binaries/ionull.o
                                         0x38 (size before relaxing)
 .eh_frame      0x00000000001155ac       0x30 binaries/kill.o
                                         0x48 (size before relaxing)
 .eh_frame      0x00000000001155dc       0x80 binaries/kprintf.o
                                         0x98 (size before relaxing)
 .eh_frame      0x000000000011565c       0x2c binaries/main.o
                                         0x44 (size before relaxing)
 .eh_frame      0x0000000000115688       0x44 binaries/mark.o
                                         0x5c (size before relaxing)
 .eh_frame      0x00000000001156cc       0x50 binaries/meminit.o
                                         0x68 (size before relaxing)
 .eh_frame      0x000000000011571c       0x30 binaries/mkbufpool.o
                                         0x48 (size before relaxing)
 .eh_frame      0x000000000011574c       0x20 binaries/newqueue.o
                                         0x38 (size before relaxing)
 .eh_frame      0x000000000011576c       0x28 binaries/open.o
                                         0x40 (size before relaxing)
 .eh_frame      0x0000000000115794       0x1c binaries/panic.o
                                         0x34 (size before relaxing)
 .eh_frame      0x00000000001157b0      0x12c binaries/pci.o
                                        0x144 (size before relaxing)
 .eh_frame      0x00000000001158dc       0x20 binaries/platinit.o
                                         0x38 (size before relaxing)
 .eh_frame      0x00000000001158fc       0x2c binaries/ptclear.o
                                         0x44 (size before relaxing)
 .eh_frame      0x0000000000115928       0x2c binaries/ptcount.o
                                         0x44 (size before relaxing)
 .eh_frame      0x0000000000115954       0x2c binaries/ptcreate.o
                                         0x44 (size before relaxing)
 .eh_frame      0x0000000000115980       0x28 binaries/ptdelete.o
                                         0x40 (size before relaxing)
 .eh_frame      0x00000000001159a8       0x28 binaries/ptinit.o
                                         0x40 (size before relaxing)
 .eh_frame      0x00000000001159d0       0x2c binaries/ptrecv.o
                                         0x44 (size before relaxing)
 .eh_frame      0x00000000001159fc       0x28 binaries/ptreset.o
                                         0x40 (size before relaxing)
 .eh_frame      0x0000000000115a24       0x30 binaries/ptsend.o
                                         0x48 (size before relaxing)
 .eh_frame      0x0000000000115a54       0x2c binaries/putc.o
                                         0x44 (size before relaxing)
 .eh_frame      0x0000000000115a80       0x24 binaries/quark_irq.o
                                         0x3c (size before relaxing)
 .eh_frame      0x0000000000115aa4       0x54 binaries/quark_pdat.o
                                         0x6c (size before relaxing)
 .eh_frame      0x0000000000115af8       0x44 binaries/queue.o
                                         0x5c (size before relaxing)
 .eh_frame      0x0000000000115b3c       0x28 binaries/read.o
                                         0x40 (size before relaxing)
 .eh_frame      0x0000000000115b64       0x20 binaries/ready.o
                                         0x38 (size before relaxing)
 .eh_frame      0x0000000000115b84       0x2c binaries/receive.o
                                         0x44 (size before relaxing)
 .eh_frame      0x0000000000115bb0       0x24 binaries/recvclr.o
                                         0x3c (size before relaxing)
 .eh_frame      0x0000000000115bd4       0x2c binaries/recvtime.o
                                         0x44 (size before relaxing)
 .eh_frame      0x0000000000115c00       0x48 binaries/resched.o
                                         0x60 (size before relaxing)
 .eh_frame      0x0000000000115c48       0x2c binaries/resume.o
                                         0x44 (size before relaxing)
 .eh_frame      0x0000000000115c74       0x28 binaries/seek.o
                                         0x40 (size before relaxing)
 .eh_frame      0x0000000000115c9c       0x24 binaries/semcount.o
                                         0x3c (size before relaxing)
 .eh_frame      0x0000000000115cc0       0x2c binaries/semcreate.o
                                         0x44 (size before relaxing)
 .eh_frame      0x0000000000115cec       0x2c binaries/semdelete.o
                                         0x44 (size before relaxing)
 .eh_frame      0x0000000000115d18       0x2c binaries/semreset.o
                                         0x44 (size before relaxing)
 .eh_frame      0x0000000000115d44       0x28 binaries/send.o
                                         0x40 (size before relaxing)
 .eh_frame      0x0000000000115d6c       0x28 binaries/signal.o
                                         0x40 (size before relaxing)
 .eh_frame      0x0000000000115d94       0x2c binaries/signaln.o
                                         0x44 (size before relaxing)
 .eh_frame      0x0000000000115dc0       0x48 binaries/sleep.o
                                         0x60 (size before relaxing)
 .eh_frame      0x0000000000115e08       0x30 binaries/stacktrace.o
                                         0x48 (size before relaxing)
 .eh_frame      0x0000000000115e38       0x28 binaries/suspend.o
                                         0x40 (size before relaxing)
 .eh_frame      0x0000000000115e60       0x28 binaries/unsleep.o
                                         0x40 (size before relaxing)
 .eh_frame      0x0000000000115e88       0x20 binaries/userret.o
                                         0x38 (size before relaxing)
 .eh_frame      0x0000000000115ea8       0x28 binaries/wait.o
                                         0x40 (size before relaxing)
 .eh_frame      0x0000000000115ed0       0x20 binaries/wakeup.o
                                         0x38 (size before relaxing)
 .eh_frame      0x0000000000115ef0       0x28 binaries/write.o
                                         0x40 (size before relaxing)
 .eh_frame      0x0000000000115f18       0x20 binaries/xdone.o
                                         0x38 (size before relaxing)
 .eh_frame      0x0000000000115f38       0x24 binaries/yield.o
                                         0x3c (size before relaxing)
 .eh_frame      0x0000000000115f5c       0x20 binaries/app1.o
                                         0x38 (size before relaxing)
 .eh_frame      0x0000000000115f7c       0x24 binaries/app2.o
                                         0x3c (size before relaxing)
 .eh_frame      0x0000000000115fa0       0x28 binaries/app3.o
                                         0x40 (size before relaxing)
 .eh_frame      0x0000000000115fc8       0x24 binaries/getppid.o
                                         0x3c (size before relaxing)
 .eh_frame      0x0000000000115fec       0x24 binaries/getpstate.o
                                         0x3c (size before relaxing)
 .eh_frame      0x0000000000116010       0x20 binaries/mywelcomemsg.o
                                         0x38 (size before relaxing)
 .eh_frame      0x0000000000116030       0x20 binaries/host2netlb.o
                                         0x38 (size before relaxing)
 .eh_frame      0x0000000000116050       0x24 binaries/host2netlc.o
                                         0x3c (size before relaxing)
 .eh_frame      0x0000000000116074       0x68 binaries/prntsegaddr.o
                                         0x80 (size before relaxing)
 .eh_frame      0x00000000001160dc       0x2c binaries/stackdepth.o
                                         0x44 (size before relaxing)
 .eh_frame      0x0000000000116108       0x20 binaries/stacktop.o
                                         0x38 (size before relaxing)
 .eh_frame      0x0000000000116128       0x48 binaries/myappA.o
                                         0x60 (size before relaxing)
 .eh_frame      0x0000000000116170       0x24 binaries/myhacker.o
                                         0x3c (size before relaxing)
 .eh_frame      0x0000000000116194       0x40 binaries/myvictim.o
                                         0x58 (size before relaxing)
 .eh_frame      0x00000000001161d4       0x20 binaries/myhackermalware.o
                                         0x38 (size before relaxing)
 .eh_frame      0x00000000001161f4       0x20 binaries/abs.o
                                         0x38 (size before relaxing)
 .eh_frame      0x0000000000116214       0x28 binaries/atoi.o
                                         0x40 (size before relaxing)
 .eh_frame      0x000000000011623c       0x28 binaries/atol.o
                                         0x40 (size before relaxing)
 .eh_frame      0x0000000000116264       0x20 binaries/bzero.o
                                         0x38 (size before relaxing)
 .eh_frame      0x0000000000116284       0xac binaries/doprnt.o
                                         0xc4 (size before relaxing)
 .eh_frame      0x0000000000116330       0x30 binaries/doscan.o
                                         0x48 (size before relaxing)
 .eh_frame      0x0000000000116360       0x5c binaries/fdoprnt.o
                                         0x74 (size before relaxing)
 .eh_frame      0x00000000001163bc       0x20 binaries/fgetc.o
                                         0x38 (size before relaxing)
 .eh_frame      0x00000000001163dc       0x2c binaries/fgets.o
                                         0x44 (size before relaxing)
 .eh_frame      0x0000000000116408       0x20 binaries/fprintf.o
                                         0x38 (size before relaxing)
 .eh_frame      0x0000000000116428       0x20 binaries/fputc.o
                                         0x38 (size before relaxing)
 .eh_frame      0x0000000000116448       0x28 binaries/fputs.o
                                         0x40 (size before relaxing)
 .eh_frame      0x0000000000116470       0x64 binaries/fscanf.o
                                         0x7c (size before relaxing)
 .eh_frame      0x00000000001164d4       0x20 binaries/getchar.o
                                         0x38 (size before relaxing)
 .eh_frame      0x00000000001164f4       0x20 binaries/labs.o
                                         0x38 (size before relaxing)
 .eh_frame      0x0000000000116514       0x20 binaries/memchr.o
                                         0x38 (size before relaxing)
 .eh_frame      0x0000000000116534       0x28 binaries/memcmp.o
                                         0x40 (size before relaxing)
 .eh_frame      0x000000000011655c       0x28 binaries/memcpy.o
                                         0x40 (size before relaxing)
 .eh_frame      0x0000000000116584       0x24 binaries/memset.o
                                         0x3c (size before relaxing)
 .eh_frame      0x00000000001165a8       0x20 binaries/printf.o
                                         0x38 (size before relaxing)
 .eh_frame      0x00000000001165c8       0x20 binaries/putchar.o
                                         0x38 (size before relaxing)
 .eh_frame      0x00000000001165e8       0xa4 binaries/qsort.o
                                         0xbc (size before relaxing)
 .eh_frame      0x000000000011668c       0x40 binaries/rand.o
                                         0x58 (size before relaxing)
 .eh_frame      0x00000000001166cc       0x48 binaries/sprintf.o
                                         0x60 (size before relaxing)
 .eh_frame      0x0000000000116714       0x60 binaries/sscanf.o
                                         0x78 (size before relaxing)
 .eh_frame      0x0000000000116774       0x24 binaries/strchr.o
                                         0x3c (size before relaxing)
 .eh_frame      0x0000000000116798       0x24 binaries/strcmp.o
                                         0x3c (size before relaxing)
 .eh_frame      0x00000000001167bc       0x20 binaries/strcpy.o
                                         0x38 (size before relaxing)
 .eh_frame      0x00000000001167dc       0x20 binaries/strlen.o
                                         0x38 (size before relaxing)
 .eh_frame      0x00000000001167fc       0x2c binaries/strncat.o
                                         0x44 (size before relaxing)
 .eh_frame      0x0000000000116828       0x24 binaries/strncmp.o
                                         0x3c (size before relaxing)
 .eh_frame      0x000000000011684c       0x2c binaries/strncpy.o
                                         0x44 (size before relaxing)
 .eh_frame      0x0000000000116878       0x24 binaries/strnlen.o
                                         0x3c (size before relaxing)
 .eh_frame      0x000000000011689c       0x24 binaries/strrchr.o
                                         0x3c (size before relaxing)
 .eh_frame      0x00000000001168c0       0x2c binaries/strstr.o
                                         0x44 (size before relaxing)
 .eh_frame      0x00000000001168ec       0x30 binaries/ttycontrol.o
                                         0x48 (size before relaxing)
 .eh_frame      0x000000000011691c       0x2c binaries/ttygetc.o
                                         0x44 (size before relaxing)
 .eh_frame      0x0000000000116948       0x84 binaries/ttyhandle_in.o
                                         0x9c (size before relaxing)
 .eh_frame      0x00000000001169cc       0x30 binaries/ttyhandle_out.o
                                         0x48 (size before relaxing)
 .eh_frame      0x00000000001169fc       0x28 binaries/ttyhandler.o
                                         0x40 (size before relaxing)
 .eh_frame      0x0000000000116a24       0x30 binaries/ttyinit.o
                                         0x48 (size before relaxing)
 .eh_frame      0x0000000000116a54       0x20 binaries/ttykickout.o
                                         0x38 (size before relaxing)
 .eh_frame      0x0000000000116a74       0x2c binaries/ttyputc.o
                                         0x44 (size before relaxing)
 .eh_frame      0x0000000000116aa0       0x2c binaries/ttyread.o
                                         0x44 (size before relaxing)
 .eh_frame      0x0000000000116acc       0x2c binaries/ttywrite.o
                                         0x44 (size before relaxing)
 .eh_frame      0x0000000000116af8       0x4c binaries/mount.o
                                         0x64 (size before relaxing)
 .eh_frame      0x0000000000116b44       0x30 binaries/naminit.o
                                         0x48 (size before relaxing)
 .eh_frame      0x0000000000116b74       0x84 binaries/nammap.o
                                         0x9c (size before relaxing)
 .eh_frame      0x0000000000116bf8       0x20 binaries/namopen.o
                                         0x38 (size before relaxing)
 .eh_frame      0x0000000000116c18       0x2c binaries/colon2mac.o
                                         0x44 (size before relaxing)
 .eh_frame      0x0000000000116c44       0x20 binaries/ethcontrol.o
                                         0x38 (size before relaxing)
 .eh_frame      0x0000000000116c64       0x30 binaries/ethhandler.o
                                         0x48 (size before relaxing)
 .eh_frame      0x0000000000116c94       0x98 binaries/ethinit.o
                                         0xb0 (size before relaxing)
 .eh_frame      0x0000000000116d2c       0x54 binaries/ethmcast.o
                                         0x6c (size before relaxing)
 .eh_frame      0x0000000000116d80       0x30 binaries/ethread.o
                                         0x48 (size before relaxing)
 .eh_frame      0x0000000000116db0       0x2c binaries/ethwrite.o
                                         0x44 (size before relaxing)
 .eh_frame      0x0000000000116ddc       0x24 binaries/rdsbufalloc.o
                                         0x3c (size before relaxing)
 .eh_frame      0x0000000000116e00       0x2c binaries/rdsclose.o
                                         0x44 (size before relaxing)
 .eh_frame      0x0000000000116e2c       0x30 binaries/rdscomm.o
                                         0x48 (size before relaxing)
 .eh_frame      0x0000000000116e5c       0x30 binaries/rdscontrol.o
                                         0x48 (size before relaxing)
 .eh_frame      0x0000000000116e8c       0x30 binaries/rdsinit.o
                                         0x48 (size before relaxing)
 .eh_frame      0x0000000000116ebc       0x30 binaries/rdsopen.o
                                         0x48 (size before relaxing)
 .eh_frame      0x0000000000116eec       0x20 binaries/rdsprocess.o
                                         0x38 (size before relaxing)
 .eh_frame      0x0000000000116f0c       0x30 binaries/rdsread.o
                                         0x48 (size before relaxing)
 .eh_frame      0x0000000000116f3c       0x30 binaries/rdswrite.o
                                         0x48 (size before relaxing)
 .eh_frame      0x0000000000116f6c       0x20 binaries/ramclose.o
                                         0x38 (size before relaxing)
 .eh_frame      0x0000000000116f8c       0x20 binaries/raminit.o
                                         0x38 (size before relaxing)
 .eh_frame      0x0000000000116fac       0x20 binaries/ramopen.o
                                         0x38 (size before relaxing)
 .eh_frame      0x0000000000116fcc       0x20 binaries/ramread.o
                                         0x38 (size before relaxing)
 .eh_frame      0x0000000000116fec       0x20 binaries/ramwrite.o
                                         0x38 (size before relaxing)
 .eh_frame      0x000000000011700c       0x28 binaries/lfdballoc.o
                                         0x40 (size before relaxing)
 .eh_frame      0x0000000000117034       0x24 binaries/lfdbfree.o
                                         0x3c (size before relaxing)
 .eh_frame      0x0000000000117058       0x24 binaries/lfflush.o
                                         0x3c (size before relaxing)
 .eh_frame      0x000000000011707c       0x20 binaries/lfgetmode.o
                                         0x38 (size before relaxing)
 .eh_frame      0x000000000011709c       0x24 binaries/lfiballoc.o
                                         0x3c (size before relaxing)
 .eh_frame      0x00000000001170c0       0x20 binaries/lfibclear.o
                                         0x38 (size before relaxing)
 .eh_frame      0x00000000001170e0       0x2c binaries/lfibget.o
                                         0x44 (size before relaxing)
 .eh_frame      0x000000000011710c       0x2c binaries/lfibput.o
                                         0x44 (size before relaxing)
 .eh_frame      0x0000000000117138       0x28 binaries/lflclose.o
                                         0x40 (size before relaxing)
 .eh_frame      0x0000000000117160       0x2c binaries/lflcontrol.o
                                         0x44 (size before relaxing)
 .eh_frame      0x000000000011718c       0x2c binaries/lflgetc.o
                                         0x44 (size before relaxing)
 .eh_frame      0x00000000001171b8       0x2c binaries/lflinit.o
                                         0x44 (size before relaxing)
 .eh_frame      0x00000000001171e4       0x30 binaries/lflputc.o
                                         0x48 (size before relaxing)
 .eh_frame      0x0000000000117214       0x2c binaries/lflread.o
                                         0x44 (size before relaxing)
 .eh_frame      0x0000000000117240       0x2c binaries/lflseek.o
                                         0x44 (size before relaxing)
 .eh_frame      0x000000000011726c       0x2c binaries/lflwrite.o
                                         0x44 (size before relaxing)
 .eh_frame      0x0000000000117298       0x30 binaries/lfsckfmt.o
                                         0x48 (size before relaxing)
 .eh_frame      0x00000000001172c8       0x30 binaries/lfscreate.o
                                         0x48 (size before relaxing)
 .eh_frame      0x00000000001172f8       0x30 binaries/lfsetup.o
                                         0x48 (size before relaxing)
 .eh_frame      0x0000000000117328       0x20 binaries/lfsinit.o
                                         0x38 (size before relaxing)
 .eh_frame      0x0000000000117348       0x30 binaries/lfsopen.o
                                         0x48 (size before relaxing)
 .eh_frame      0x0000000000117378       0x30 binaries/lftruncate.o
                                         0x48 (size before relaxing)
 .eh_frame      0x00000000001173a8       0x20 binaries/rflclose.o
                                         0x38 (size before relaxing)
 .eh_frame      0x00000000001173c8       0x20 binaries/rflgetc.o
                                         0x38 (size before relaxing)
 .eh_frame      0x00000000001173e8       0x24 binaries/rflinit.o
                                         0x3c (size before relaxing)
 .eh_frame      0x000000000011740c       0x20 binaries/rflputc.o
                                         0x38 (size before relaxing)
 .eh_frame      0x000000000011742c       0x30 binaries/rflread.o
                                         0x48 (size before relaxing)
 .eh_frame      0x000000000011745c       0x20 binaries/rflseek.o
                                         0x38 (size before relaxing)
 .eh_frame      0x000000000011747c       0x30 binaries/rflwrite.o
                                         0x48 (size before relaxing)
 .eh_frame      0x00000000001174ac       0x30 binaries/rfscomm.o
                                         0x48 (size before relaxing)
 .eh_frame      0x00000000001174dc       0x2c binaries/rfscontrol.o
                                         0x44 (size before relaxing)
 .eh_frame      0x0000000000117508       0x20 binaries/rfsgetmode.o
                                         0x38 (size before relaxing)
 .eh_frame      0x0000000000117528       0x20 binaries/rfsinit.o
                                         0x38 (size before relaxing)
 .eh_frame      0x0000000000117548       0x20 binaries/rfsndmsg.o
                                         0x38 (size before relaxing)
 .eh_frame      0x0000000000117568       0x2c binaries/rfsopen.o
                                         0x44 (size before relaxing)
 .eh_frame      0x0000000000117594       0xec binaries/arp.o
                                        0x104 (size before relaxing)
 .eh_frame      0x0000000000117680       0xd0 binaries/dhcp.o
                                         0xe8 (size before relaxing)
 .eh_frame      0x0000000000117750       0x2c binaries/dot2ip.o
                                         0x44 (size before relaxing)
 .eh_frame      0x000000000011777c       0x60 binaries/hexdump.o
                                         0x78 (size before relaxing)
 .eh_frame      0x00000000001177dc      0x198 binaries/icmp.o
                                        0x1b0 (size before relaxing)
 .eh_frame      0x0000000000117974      0x148 binaries/ip.o
                                        0x160 (size before relaxing)
 .eh_frame      0x0000000000117abc       0x7c binaries/net.o
                                         0x94 (size before relaxing)
 .eh_frame      0x0000000000117b38       0x24 binaries/netstart.o
                                         0x3c (size before relaxing)
 .eh_frame      0x0000000000117b5c       0x50 binaries/pdump.o
                                         0x68 (size before relaxing)
 .eh_frame      0x0000000000117bac       0x80 binaries/tftp.o
                                         0x98 (size before relaxing)
 .eh_frame      0x0000000000117c2c      0x1b0 binaries/udp.o
                                        0x1c8 (size before relaxing)
 .eh_frame      0x0000000000117ddc       0x30 binaries/addargs.o
                                         0x48 (size before relaxing)
 .eh_frame      0x0000000000117e0c       0x30 binaries/lexan.o
                                         0x48 (size before relaxing)
 .eh_frame      0x0000000000117e3c       0x30 binaries/shell.o
                                         0x48 (size before relaxing)
 .eh_frame      0x0000000000117e6c       0x2c binaries/xsh_argecho.o
                                         0x44 (size before relaxing)
 .eh_frame      0x0000000000117e98       0x30 binaries/xsh_arp.o
                                         0x48 (size before relaxing)
 .eh_frame      0x0000000000117ec8       0x30 binaries/xsh_cat.o
                                         0x48 (size before relaxing)
 .eh_frame      0x0000000000117ef8       0x20 binaries/xsh_clear.o
                                         0x38 (size before relaxing)
 .eh_frame      0x0000000000117f18       0x24 binaries/xsh_date.o
                                         0x3c (size before relaxing)
 .eh_frame      0x0000000000117f3c       0x28 binaries/xsh_devdump.o
                                         0x40 (size before relaxing)
 .eh_frame      0x0000000000117f64       0x2c binaries/xsh_echo.o
                                         0x44 (size before relaxing)
 .eh_frame      0x0000000000117f90       0x20 binaries/xsh_exit.o
                                         0x38 (size before relaxing)
 .eh_frame      0x0000000000117fb0       0x30 binaries/xsh_help.o
                                         0x48 (size before relaxing)
 .eh_frame      0x0000000000117fe0       0x2c binaries/xsh_ipaddr.o
                                         0x44 (size before relaxing)
 .eh_frame      0x000000000011800c       0x2c binaries/xsh_kill.o
                                         0x44 (size before relaxing)
 .eh_frame      0x0000000000118038       0x58 binaries/xsh_memdump.o
                                         0x70 (size before relaxing)
 .eh_frame      0x0000000000118090       0x30 binaries/xsh_memstat.o
                                         0x48 (size before relaxing)
 .eh_frame      0x00000000001180c0       0x30 binaries/xsh_ping.o
                                         0x48 (size before relaxing)
 .eh_frame      0x00000000001180f0       0x30 binaries/xsh_ps.o
                                         0x48 (size before relaxing)
 .eh_frame      0x0000000000118120       0x30 binaries/xsh_sleep.o
                                         0x48 (size before relaxing)
 .eh_frame      0x0000000000118150       0x2c binaries/xsh_udpdump.o
                                         0x44 (size before relaxing)
 .eh_frame      0x000000000011817c       0x30 binaries/xsh_udpecho.o
                                         0x48 (size before relaxing)
 .eh_frame      0x00000000001181ac       0x30 binaries/xsh_udpeserver.o
                                         0x48 (size before relaxing)
 .eh_frame      0x00000000001181dc       0x30 binaries/xsh_uptime.o
                                         0x48 (size before relaxing)

.iplt           0x0000000000118210        0x0
 .iplt          0x0000000000118210        0x0 binaries/start.o

.rel.dyn        0x000000000011820c        0x0
 .rel.iplt      0x000000000011820c        0x0 binaries/start.o
 .rel.text      0x000000000011820c        0x0 binaries/start.o
 .rel.data      0x000000000011820c        0x0 binaries/start.o
 .rel.rodata    0x000000000011820c        0x0 binaries/start.o

.data           0x0000000000118220      0xde0
                0x0000000000118220                data = ABSOLUTE (.)
 *(.data .data.*)
 .data          0x0000000000118220      0x85a binaries/start.o
                0x0000000000118220                gdt
                0x0000000000118270                idt
                0x0000000000118a76                cpudelay
 *fill*         0x0000000000118a7a        0x6 
 .data          0x0000000000118a80       0x88 binaries/ascdate.o
                0x0000000000118a80                Date
 .data          0x0000000000118b08        0x0 binaries/bufinit.o
 .data          0x0000000000118b08        0x0 binaries/chprio.o
 .data          0x0000000000118b08        0x4 binaries/clkhandler.o
 .data          0x0000000000118b0c        0x0 binaries/clkinit.o
 .data          0x0000000000118b0c        0x0 binaries/close.o
 *fill*         0x0000000000118b0c       0x14 
 .data          0x0000000000118b20      0x30c binaries/conf.o
                0x0000000000118b20                devtab
 .data          0x0000000000118e2c        0x0 binaries/control.o
 .data          0x0000000000118e2c        0x4 binaries/create.o
 .data          0x0000000000118e30        0x0 binaries/early_imr.o
 *fill*         0x0000000000118e30       0x10 
 .data          0x0000000000118e40       0x40 binaries/evec.o
                0x0000000000118e40                inames
 .data          0x0000000000118e80        0x0 binaries/freebuf.o
 .data          0x0000000000118e80        0x0 binaries/freemem.o
 .data          0x0000000000118e80        0x0 binaries/getbuf.o
 .data          0x0000000000118e80        0x0 binaries/getc.o
 .data          0x0000000000118e80        0x0 binaries/getdev.o
 .data          0x0000000000118e80        0x0 binaries/getitem.o
 .data          0x0000000000118e80        0x0 binaries/getmem.o
 .data          0x0000000000118e80        0x0 binaries/getpid.o
 .data          0x0000000000118e80        0x0 binaries/getprio.o
 .data          0x0000000000118e80        0x0 binaries/getstk.o
 .data          0x0000000000118e80        0x0 binaries/gettime.o
 .data          0x0000000000118e80        0x0 binaries/getutime.o
 .data          0x0000000000118e80        0x0 binaries/init.o
 .data          0x0000000000118e80        0x0 binaries/initialize.o
 .data          0x0000000000118e80        0x0 binaries/insert.o
 .data          0x0000000000118e80        0x0 binaries/insertd.o
 .data          0x0000000000118e80        0x0 binaries/ioerr.o
 .data          0x0000000000118e80        0x0 binaries/ionull.o
 .data          0x0000000000118e80        0x0 binaries/kill.o
 .data          0x0000000000118e80        0x0 binaries/kprintf.o
 .data          0x0000000000118e80        0x0 binaries/main.o
 .data          0x0000000000118e80        0x0 binaries/mark.o
 .data          0x0000000000118e80       0x48 binaries/meminit.o
                0x0000000000118e80                gdt_copy
                0x0000000000118ec0                bootinfo
                0x0000000000118ec4                bootsign
 .data          0x0000000000118ec8        0x0 binaries/mkbufpool.o
 .data          0x0000000000118ec8        0x2 binaries/newqueue.o
 .data          0x0000000000118eca        0x0 binaries/open.o
 .data          0x0000000000118eca        0x0 binaries/panic.o
 .data          0x0000000000118eca        0x0 binaries/pci.o
 .data          0x0000000000118eca        0x0 binaries/platinit.o
 .data          0x0000000000118eca        0x0 binaries/ptclear.o
 .data          0x0000000000118eca        0x0 binaries/ptcount.o
 .data          0x0000000000118eca        0x0 binaries/ptcreate.o
 .data          0x0000000000118eca        0x0 binaries/ptdelete.o
 .data          0x0000000000118eca        0x0 binaries/ptinit.o
 .data          0x0000000000118eca        0x0 binaries/ptrecv.o
 .data          0x0000000000118eca        0x0 binaries/ptreset.o
 .data          0x0000000000118eca        0x0 binaries/ptsend.o
 .data          0x0000000000118eca        0x0 binaries/putc.o
 .data          0x0000000000118eca        0x0 binaries/quark_irq.o
 .data          0x0000000000118eca        0x0 binaries/quark_pdat.o
 .data          0x0000000000118eca        0x0 binaries/queue.o
 .data          0x0000000000118eca        0x0 binaries/read.o
 .data          0x0000000000118eca        0x0 binaries/ready.o
 .data          0x0000000000118eca        0x0 binaries/receive.o
 .data          0x0000000000118eca        0x0 binaries/recvclr.o
 .data          0x0000000000118eca        0x0 binaries/recvtime.o
 .data          0x0000000000118eca        0x0 binaries/resched.o
 .data          0x0000000000118eca        0x0 binaries/resume.o
 .data          0x0000000000118eca        0x0 binaries/seek.o
 .data          0x0000000000118eca        0x0 binaries/semcount.o
 .data          0x0000000000118eca        0x0 binaries/semcreate.o
 .data          0x0000000000118eca        0x0 binaries/semdelete.o
 .data          0x0000000000118eca        0x0 binaries/semreset.o
 .data          0x0000000000118eca        0x0 binaries/send.o
 .data          0x0000000000118eca        0x0 binaries/signal.o
 .data          0x0000000000118eca        0x0 binaries/signaln.o
 .data          0x0000000000118eca        0x0 binaries/sleep.o
 .data          0x0000000000118eca        0x0 binaries/stacktrace.o
 .data          0x0000000000118eca        0x0 binaries/suspend.o
 .data          0x0000000000118eca        0x0 binaries/unsleep.o
 .data          0x0000000000118eca        0x0 binaries/userret.o
 .data          0x0000000000118eca        0x0 binaries/wait.o
 .data          0x0000000000118eca        0x0 binaries/wakeup.o
 .data          0x0000000000118eca        0x0 binaries/write.o
 .data          0x0000000000118eca        0x0 binaries/xdone.o
 .data          0x0000000000118eca        0x0 binaries/yield.o
 .data          0x0000000000118eca        0x0 binaries/app1.o
 .data          0x0000000000118eca        0x0 binaries/app2.o
 .data          0x0000000000118eca        0x0 binaries/app3.o
 .data          0x0000000000118eca        0x0 binaries/getppid.o
 .data          0x0000000000118eca        0x0 binaries/getpstate.o
 .data          0x0000000000118eca        0x0 binaries/mywelcomemsg.o
 .data          0x0000000000118eca        0x0 binaries/host2netlb.o
 .data          0x0000000000118eca        0x0 binaries/host2netlc.o
 .data          0x0000000000118eca        0x0 binaries/prntsegaddr.o
 .data          0x0000000000118eca        0x0 binaries/stackdepth.o
 .data          0x0000000000118eca        0x0 binaries/stacktop.o
 .data          0x0000000000118eca        0x0 binaries/myappA.o
 .data          0x0000000000118eca        0x0 binaries/myhacker.o
 .data          0x0000000000118eca        0x0 binaries/myvictim.o
 .data          0x0000000000118eca        0x0 binaries/myhackermalware.o
 .data          0x0000000000118eca        0x0 binaries/abs.o
 .data          0x0000000000118eca        0x0 binaries/atoi.o
 .data          0x0000000000118eca        0x0 binaries/atol.o
 .data          0x0000000000118eca        0x0 binaries/bzero.o
 .data          0x0000000000118eca        0x0 binaries/ctype_.o
 .data          0x0000000000118eca        0x0 binaries/doprnt.o
 *fill*         0x0000000000118eca       0x16 
 .data          0x0000000000118ee0       0x80 binaries/doscan.o
                0x0000000000118ee0                _sctab
 .data          0x0000000000118f60        0x0 binaries/fdoprnt.o
 .data          0x0000000000118f60        0x0 binaries/fgetc.o
 .data          0x0000000000118f60        0x0 binaries/fgets.o
 .data          0x0000000000118f60        0x0 binaries/fprintf.o
 .data          0x0000000000118f60        0x0 binaries/fputc.o
 .data          0x0000000000118f60        0x0 binaries/fputs.o
 .data          0x0000000000118f60        0x0 binaries/fscanf.o
 .data          0x0000000000118f60        0x0 binaries/getchar.o
 .data          0x0000000000118f60        0x0 binaries/labs.o
 .data          0x0000000000118f60        0x0 binaries/memchr.o
 .data          0x0000000000118f60        0x0 binaries/memcmp.o
 .data          0x0000000000118f60        0x0 binaries/memcpy.o
 .data          0x0000000000118f60        0x0 binaries/memset.o
 .data          0x0000000000118f60        0x0 binaries/printf.o
 .data          0x0000000000118f60        0x0 binaries/putchar.o
 .data          0x0000000000118f60        0x0 binaries/qsort.o
 .data          0x0000000000118f60        0x4 binaries/rand.o
 .data          0x0000000000118f64        0x0 binaries/sprintf.o
 .data          0x0000000000118f64        0x0 binaries/sscanf.o
 .data          0x0000000000118f64        0x0 binaries/strchr.o
 .data          0x0000000000118f64        0x0 binaries/strcmp.o
 .data          0x0000000000118f64        0x0 binaries/strcpy.o
 .data          0x0000000000118f64        0x0 binaries/strlen.o
 .data          0x0000000000118f64        0x0 binaries/strncat.o
 .data          0x0000000000118f64        0x0 binaries/strncmp.o
 .data          0x0000000000118f64        0x0 binaries/strncpy.o
 .data          0x0000000000118f64        0x0 binaries/strnlen.o
 .data          0x0000000000118f64        0x0 binaries/strrchr.o
 .data          0x0000000000118f64        0x0 binaries/strstr.o
 .data          0x0000000000118f64        0x0 binaries/ttycontrol.o
 .data          0x0000000000118f64        0x0 binaries/ttygetc.o
 .data          0x0000000000118f64        0x0 binaries/ttyhandle_in.o
 .data          0x0000000000118f64        0x0 binaries/ttyhandle_out.o
 .data          0x0000000000118f64        0x0 binaries/ttyhandler.o
 .data          0x0000000000118f64        0x0 binaries/ttyinit.o
 .data          0x0000000000118f64        0x0 binaries/ttykickout.o
 .data          0x0000000000118f64        0x0 binaries/ttyputc.o
 .data          0x0000000000118f64        0x0 binaries/ttyread.o
 .data          0x0000000000118f64        0x0 binaries/ttywrite.o
 .data          0x0000000000118f64        0x0 binaries/mount.o
 .data          0x0000000000118f64        0x0 binaries/naminit.o
 .data          0x0000000000118f64        0x0 binaries/nammap.o
 .data          0x0000000000118f64        0x0 binaries/namopen.o
 .data          0x0000000000118f64        0x0 binaries/colon2mac.o
 .data          0x0000000000118f64        0x0 binaries/ethcontrol.o
 .data          0x0000000000118f64        0x0 binaries/ethhandler.o
 .data          0x0000000000118f64        0x0 binaries/ethinit.o
 .data          0x0000000000118f64        0x0 binaries/ethmcast.o
 .data          0x0000000000118f64        0x0 binaries/ethread.o
 .data          0x0000000000118f64        0x0 binaries/ethwrite.o
 .data          0x0000000000118f64        0x0 binaries/rdsbufalloc.o
 .data          0x0000000000118f64        0x0 binaries/rdsclose.o
 .data          0x0000000000118f64        0x0 binaries/rdscomm.o
 .data          0x0000000000118f64        0x0 binaries/rdscontrol.o
 .data          0x0000000000118f64        0x0 binaries/rdsinit.o
 .data          0x0000000000118f64        0x0 binaries/rdsopen.o
 .data          0x0000000000118f64        0x0 binaries/rdsprocess.o
 .data          0x0000000000118f64        0x0 binaries/rdsread.o
 .data          0x0000000000118f64        0x0 binaries/rdswrite.o
 .data          0x0000000000118f64        0x0 binaries/ramclose.o
 .data          0x0000000000118f64        0x0 binaries/raminit.o
 .data          0x0000000000118f64        0x0 binaries/ramopen.o
 .data          0x0000000000118f64        0x0 binaries/ramread.o
 .data          0x0000000000118f64        0x0 binaries/ramwrite.o
 .data          0x0000000000118f64        0x0 binaries/lfdballoc.o
 .data          0x0000000000118f64        0x0 binaries/lfdbfree.o
 .data          0x0000000000118f64        0x0 binaries/lfflush.o
 .data          0x0000000000118f64        0x0 binaries/lfgetmode.o
 .data          0x0000000000118f64        0x0 binaries/lfiballoc.o
 .data          0x0000000000118f64        0x0 binaries/lfibclear.o
 .data          0x0000000000118f64        0x0 binaries/lfibget.o
 .data          0x0000000000118f64        0x0 binaries/lfibput.o
 .data          0x0000000000118f64        0x0 binaries/lflclose.o
 .data          0x0000000000118f64        0x0 binaries/lflcontrol.o
 .data          0x0000000000118f64        0x0 binaries/lflgetc.o
 .data          0x0000000000118f64        0x0 binaries/lflinit.o
 .data          0x0000000000118f64        0x0 binaries/lflputc.o
 .data          0x0000000000118f64        0x0 binaries/lflread.o
 .data          0x0000000000118f64        0x0 binaries/lflseek.o
 .data          0x0000000000118f64        0x0 binaries/lflwrite.o
 .data          0x0000000000118f64        0x0 binaries/lfsckfmt.o
 .data          0x0000000000118f64        0x0 binaries/lfscreate.o
 .data          0x0000000000118f64        0x0 binaries/lfsetup.o
 .data          0x0000000000118f64        0x0 binaries/lfsinit.o
 .data          0x0000000000118f64        0x0 binaries/lfsopen.o
 .data          0x0000000000118f64        0x0 binaries/lftruncate.o
 .data          0x0000000000118f64        0x0 binaries/rflclose.o
 .data          0x0000000000118f64        0x0 binaries/rflgetc.o
 .data          0x0000000000118f64        0x0 binaries/rflinit.o
 .data          0x0000000000118f64        0x0 binaries/rflputc.o
 .data          0x0000000000118f64        0x0 binaries/rflread.o
 .data          0x0000000000118f64        0x0 binaries/rflseek.o
 .data          0x0000000000118f64        0x0 binaries/rflwrite.o
 .data          0x0000000000118f64        0x0 binaries/rfscomm.o
 .data          0x0000000000118f64        0x0 binaries/rfscontrol.o
 .data          0x0000000000118f64        0x0 binaries/rfsgetmode.o
 .data          0x0000000000118f64        0x0 binaries/rfsinit.o
 .data          0x0000000000118f64        0x0 binaries/rfsndmsg.o
 .data          0x0000000000118f64        0x0 binaries/rfsopen.o
 .data          0x0000000000118f64        0x0 binaries/arp.o
 .data          0x0000000000118f64        0x0 binaries/dhcp.o
 .data          0x0000000000118f64        0x0 binaries/dot2ip.o
 .data          0x0000000000118f64        0x0 binaries/hexdump.o
 .data          0x0000000000118f64        0x4 binaries/icmp.o
 .data          0x0000000000118f68        0x0 binaries/ip.o
 .data          0x0000000000118f68        0x0 binaries/net.o
 .data          0x0000000000118f68        0x0 binaries/netstart.o
 .data          0x0000000000118f68        0x0 binaries/pdump.o
 .data          0x0000000000118f68        0x0 binaries/tftp.o
 .data          0x0000000000118f68        0x4 binaries/udp.o
 .data          0x0000000000118f6c        0x0 binaries/addargs.o
 .data          0x0000000000118f6c        0x0 binaries/lexan.o
 .data          0x0000000000118f6c        0x4 binaries/shell.o
                0x0000000000118f6c                ncmd
 .data          0x0000000000118f70        0x0 binaries/xsh_argecho.o
 .data          0x0000000000118f70        0x0 binaries/xsh_arp.o
 .data          0x0000000000118f70        0x0 binaries/xsh_cat.o
 .data          0x0000000000118f70        0x0 binaries/xsh_clear.o
 .data          0x0000000000118f70        0x0 binaries/xsh_date.o
 .data          0x0000000000118f70        0x0 binaries/xsh_devdump.o
 .data          0x0000000000118f70        0x0 binaries/xsh_echo.o
 .data          0x0000000000118f70        0x0 binaries/xsh_exit.o
 .data          0x0000000000118f70        0x0 binaries/xsh_help.o
 .data          0x0000000000118f70        0x0 binaries/xsh_ipaddr.o
 .data          0x0000000000118f70        0x0 binaries/xsh_kill.o
 .data          0x0000000000118f70        0x0 binaries/xsh_memdump.o
 .data          0x0000000000118f70        0x0 binaries/xsh_memstat.o
 .data          0x0000000000118f70        0x0 binaries/xsh_ping.o
 .data          0x0000000000118f70        0x0 binaries/xsh_ps.o
 .data          0x0000000000118f70        0x0 binaries/xsh_sleep.o
 .data          0x0000000000118f70        0x0 binaries/xsh_udpdump.o
 .data          0x0000000000118f70        0x0 binaries/xsh_udpecho.o
 .data          0x0000000000118f70        0x0 binaries/xsh_udpeserver.o
 .data          0x0000000000118f70        0x0 binaries/xsh_uptime.o
 .data          0x0000000000118f70        0x0 binaries/clkdisp.o
 .data          0x0000000000118f70        0x0 binaries/ctxsw.o
 .data          0x0000000000118f70        0x0 binaries/intr.o
 .data          0x0000000000118f70        0x0 binaries/host2netla.o
 .data          0x0000000000118f70        0x0 binaries/ttydispatch.o
 .data          0x0000000000118f70        0x0 binaries/ethdispatch.o
                0x0000000000118f70                edata = ABSOLUTE (.)
                0x0000000000119000                . = ALIGN (0x1000)
 *fill*         0x0000000000118f70       0x90 

.igot.plt       0x0000000000119000        0x0
 .igot.plt      0x0000000000119000        0x0 binaries/start.o

.bss            0x0000000000119000    0x20000
                0x0000000000119000                bss = ABSOLUTE (.)
 *(.bss .bss.*)
 .bss           0x0000000000119000        0x0 binaries/start.o
 .bss           0x0000000000119000        0x0 binaries/ascdate.o
 .bss           0x0000000000119000        0x0 binaries/bufinit.o
 .bss           0x0000000000119000        0x0 binaries/chprio.o
 .bss           0x0000000000119000        0x0 binaries/clkhandler.o
 .bss           0x0000000000119000        0x4 binaries/clkinit.o
                0x0000000000119000                ctr1000
 .bss           0x0000000000119004        0x0 binaries/close.o
 .bss           0x0000000000119004        0x0 binaries/conf.o
 .bss           0x0000000000119004        0x0 binaries/control.o
 .bss           0x0000000000119004        0x0 binaries/create.o
 .bss           0x0000000000119004        0x0 binaries/early_imr.o
 .bss           0x0000000000119004        0x0 binaries/evec.o
 .bss           0x0000000000119004        0x0 binaries/freebuf.o
 .bss           0x0000000000119004        0x0 binaries/freemem.o
 .bss           0x0000000000119004        0x0 binaries/getbuf.o
 .bss           0x0000000000119004        0x0 binaries/getc.o
 .bss           0x0000000000119004        0x0 binaries/getdev.o
 .bss           0x0000000000119004        0x0 binaries/getitem.o
 .bss           0x0000000000119004        0x0 binaries/getmem.o
 .bss           0x0000000000119004        0x0 binaries/getpid.o
 .bss           0x0000000000119004        0x0 binaries/getprio.o
 .bss           0x0000000000119004        0x0 binaries/getstk.o
 .bss           0x0000000000119004        0x0 binaries/gettime.o
 .bss           0x0000000000119004        0x0 binaries/getutime.o
 .bss           0x0000000000119004        0x0 binaries/init.o
 .bss           0x0000000000119004        0x0 binaries/initialize.o
 .bss           0x0000000000119004        0x0 binaries/insert.o
 .bss           0x0000000000119004        0x0 binaries/insertd.o
 .bss           0x0000000000119004        0x0 binaries/ioerr.o
 .bss           0x0000000000119004        0x0 binaries/ionull.o
 .bss           0x0000000000119004        0x0 binaries/kill.o
 .bss           0x0000000000119004        0x0 binaries/kprintf.o
 .bss           0x0000000000119004        0x4 binaries/main.o
                0x0000000000119004                victimglobal
 .bss           0x0000000000119008        0x0 binaries/mark.o
 .bss           0x0000000000119008        0x0 binaries/meminit.o
 .bss           0x0000000000119008        0x0 binaries/mkbufpool.o
 .bss           0x0000000000119008        0x0 binaries/newqueue.o
 .bss           0x0000000000119008        0x0 binaries/open.o
 .bss           0x0000000000119008        0x0 binaries/panic.o
 .bss           0x0000000000119008        0x0 binaries/pci.o
 .bss           0x0000000000119008        0x0 binaries/platinit.o
 .bss           0x0000000000119008        0x0 binaries/ptclear.o
 .bss           0x0000000000119008        0x0 binaries/ptcount.o
 .bss           0x0000000000119008        0x0 binaries/ptcreate.o
 .bss           0x0000000000119008        0x0 binaries/ptdelete.o
 .bss           0x0000000000119008        0x0 binaries/ptinit.o
 .bss           0x0000000000119008        0x0 binaries/ptrecv.o
 .bss           0x0000000000119008        0x0 binaries/ptreset.o
 .bss           0x0000000000119008        0x0 binaries/ptsend.o
 .bss           0x0000000000119008        0x0 binaries/putc.o
 .bss           0x0000000000119008        0x0 binaries/quark_irq.o
 .bss           0x0000000000119008        0x0 binaries/quark_pdat.o
 .bss           0x0000000000119008        0x0 binaries/queue.o
 .bss           0x0000000000119008        0x0 binaries/read.o
 .bss           0x0000000000119008        0x0 binaries/ready.o
 .bss           0x0000000000119008        0x0 binaries/receive.o
 .bss           0x0000000000119008        0x0 binaries/recvclr.o
 .bss           0x0000000000119008        0x0 binaries/recvtime.o
 .bss           0x0000000000119008        0x0 binaries/resched.o
 .bss           0x0000000000119008        0x0 binaries/resume.o
 .bss           0x0000000000119008        0x0 binaries/seek.o
 .bss           0x0000000000119008        0x0 binaries/semcount.o
 .bss           0x0000000000119008        0x4 binaries/semcreate.o
 .bss           0x000000000011900c        0x0 binaries/semdelete.o
 .bss           0x000000000011900c        0x0 binaries/semreset.o
 .bss           0x000000000011900c        0x0 binaries/send.o
 .bss           0x000000000011900c        0x0 binaries/signal.o
 .bss           0x000000000011900c        0x0 binaries/signaln.o
 .bss           0x000000000011900c        0x0 binaries/sleep.o
 .bss           0x000000000011900c        0x8 binaries/stacktrace.o
 .bss           0x0000000000119014        0x0 binaries/suspend.o
 .bss           0x0000000000119014        0x0 binaries/unsleep.o
 .bss           0x0000000000119014        0x0 binaries/userret.o
 .bss           0x0000000000119014        0x0 binaries/wait.o
 .bss           0x0000000000119014        0x0 binaries/wakeup.o
 .bss           0x0000000000119014        0x0 binaries/write.o
 .bss           0x0000000000119014        0x0 binaries/xdone.o
 .bss           0x0000000000119014        0x0 binaries/yield.o
 .bss           0x0000000000119014        0x0 binaries/app1.o
 .bss           0x0000000000119014        0x0 binaries/app2.o
 .bss           0x0000000000119014        0x0 binaries/app3.o
 .bss           0x0000000000119014        0x0 binaries/getppid.o
 .bss           0x0000000000119014        0x0 binaries/getpstate.o
 .bss           0x0000000000119014        0x0 binaries/mywelcomemsg.o
 .bss           0x0000000000119014        0x0 binaries/host2netlb.o
 .bss           0x0000000000119014        0x0 binaries/host2netlc.o
 .bss           0x0000000000119014        0x0 binaries/prntsegaddr.o
 .bss           0x0000000000119014        0x0 binaries/stackdepth.o
 .bss           0x0000000000119014        0x0 binaries/stacktop.o
 .bss           0x0000000000119014        0x0 binaries/myappA.o
 .bss           0x0000000000119014        0x0 binaries/myhacker.o
 .bss           0x0000000000119014        0x0 binaries/myvictim.o
 .bss           0x0000000000119014        0x0 binaries/myhackermalware.o
 .bss           0x0000000000119014        0x0 binaries/abs.o
 .bss           0x0000000000119014        0x0 binaries/atoi.o
 .bss           0x0000000000119014        0x0 binaries/atol.o
 .bss           0x0000000000119014        0x0 binaries/bzero.o
 .bss           0x0000000000119014        0x0 binaries/ctype_.o
 .bss           0x0000000000119014        0x0 binaries/doprnt.o
 .bss           0x0000000000119014        0x0 binaries/doscan.o
 .bss           0x0000000000119014        0x0 binaries/fdoprnt.o
 .bss           0x0000000000119014        0x0 binaries/fgetc.o
 .bss           0x0000000000119014        0x0 binaries/fgets.o
 .bss           0x0000000000119014        0x0 binaries/fprintf.o
 .bss           0x0000000000119014        0x0 binaries/fputc.o
 .bss           0x0000000000119014        0x0 binaries/fputs.o
 .bss           0x0000000000119014        0x0 binaries/fscanf.o
 .bss           0x0000000000119014        0x0 binaries/getchar.o
 .bss           0x0000000000119014        0x0 binaries/labs.o
 .bss           0x0000000000119014        0x0 binaries/memchr.o
 .bss           0x0000000000119014        0x0 binaries/memcmp.o
 .bss           0x0000000000119014        0x0 binaries/memcpy.o
 .bss           0x0000000000119014        0x0 binaries/memset.o
 .bss           0x0000000000119014        0x0 binaries/printf.o
 .bss           0x0000000000119014        0x0 binaries/putchar.o
 .bss           0x0000000000119014        0x8 binaries/qsort.o
 .bss           0x000000000011901c        0x0 binaries/rand.o
 .bss           0x000000000011901c        0x0 binaries/sprintf.o
 .bss           0x000000000011901c        0x0 binaries/sscanf.o
 .bss           0x000000000011901c        0x0 binaries/strchr.o
 .bss           0x000000000011901c        0x0 binaries/strcmp.o
 .bss           0x000000000011901c        0x0 binaries/strcpy.o
 .bss           0x000000000011901c        0x0 binaries/strlen.o
 .bss           0x000000000011901c        0x0 binaries/strncat.o
 .bss           0x000000000011901c        0x0 binaries/strncmp.o
 .bss           0x000000000011901c        0x0 binaries/strncpy.o
 .bss           0x000000000011901c        0x0 binaries/strnlen.o
 .bss           0x000000000011901c        0x0 binaries/strrchr.o
 .bss           0x000000000011901c        0x0 binaries/strstr.o
 .bss           0x000000000011901c        0x0 binaries/ttycontrol.o
 .bss           0x000000000011901c        0x0 binaries/ttygetc.o
 .bss           0x000000000011901c        0x0 binaries/ttyhandle_in.o
 .bss           0x000000000011901c        0x0 binaries/ttyhandle_out.o
 .bss           0x000000000011901c        0x0 binaries/ttyhandler.o
 .bss           0x000000000011901c        0x0 binaries/ttyinit.o
 .bss           0x000000000011901c        0x0 binaries/ttykickout.o
 .bss           0x000000000011901c        0x0 binaries/ttyputc.o
 .bss           0x000000000011901c        0x0 binaries/ttyread.o
 .bss           0x000000000011901c        0x0 binaries/ttywrite.o
 .bss           0x000000000011901c        0x0 binaries/mount.o
 .bss           0x000000000011901c        0x0 binaries/naminit.o
 .bss           0x000000000011901c        0x0 binaries/nammap.o
 .bss           0x000000000011901c        0x0 binaries/namopen.o
 .bss           0x000000000011901c        0x0 binaries/colon2mac.o
 .bss           0x000000000011901c        0x0 binaries/ethcontrol.o
 .bss           0x000000000011901c        0x0 binaries/ethhandler.o
 .bss           0x000000000011901c        0x0 binaries/ethinit.o
 .bss           0x000000000011901c        0x0 binaries/ethmcast.o
 .bss           0x000000000011901c        0x0 binaries/ethread.o
 .bss           0x000000000011901c        0x0 binaries/ethwrite.o
 .bss           0x000000000011901c        0x0 binaries/rdsbufalloc.o
 .bss           0x000000000011901c        0x0 binaries/rdsclose.o
 .bss           0x000000000011901c        0x0 binaries/rdscomm.o
 .bss           0x000000000011901c        0x0 binaries/rdscontrol.o
 .bss           0x000000000011901c        0x0 binaries/rdsinit.o
 .bss           0x000000000011901c        0x0 binaries/rdsopen.o
 .bss           0x000000000011901c        0x0 binaries/rdsprocess.o
 .bss           0x000000000011901c        0x0 binaries/rdsread.o
 .bss           0x000000000011901c        0x0 binaries/rdswrite.o
 .bss           0x000000000011901c        0x0 binaries/ramclose.o
 .bss           0x000000000011901c        0x0 binaries/raminit.o
 .bss           0x000000000011901c        0x0 binaries/ramopen.o
 .bss           0x000000000011901c        0x0 binaries/ramread.o
 .bss           0x000000000011901c        0x0 binaries/ramwrite.o
 .bss           0x000000000011901c        0x0 binaries/lfdballoc.o
 .bss           0x000000000011901c        0x0 binaries/lfdbfree.o
 .bss           0x000000000011901c        0x0 binaries/lfflush.o
 .bss           0x000000000011901c        0x0 binaries/lfgetmode.o
 .bss           0x000000000011901c        0x0 binaries/lfiballoc.o
 .bss           0x000000000011901c        0x0 binaries/lfibclear.o
 .bss           0x000000000011901c        0x0 binaries/lfibget.o
 .bss           0x000000000011901c        0x0 binaries/lfibput.o
 .bss           0x000000000011901c        0x0 binaries/lflclose.o
 .bss           0x000000000011901c        0x0 binaries/lflcontrol.o
 .bss           0x000000000011901c        0x0 binaries/lflgetc.o
 .bss           0x000000000011901c        0x0 binaries/lflinit.o
 .bss           0x000000000011901c        0x0 binaries/lflputc.o
 .bss           0x000000000011901c        0x0 binaries/lflread.o
 .bss           0x000000000011901c        0x0 binaries/lflseek.o
 .bss           0x000000000011901c        0x0 binaries/lflwrite.o
 .bss           0x000000000011901c        0x0 binaries/lfsckfmt.o
 .bss           0x000000000011901c        0x0 binaries/lfscreate.o
 .bss           0x000000000011901c        0x0 binaries/lfsetup.o
 .bss           0x000000000011901c        0x0 binaries/lfsinit.o
 .bss           0x000000000011901c        0x0 binaries/lfsopen.o
 .bss           0x000000000011901c        0x0 binaries/lftruncate.o
 .bss           0x000000000011901c        0x0 binaries/rflclose.o
 .bss           0x000000000011901c        0x0 binaries/rflgetc.o
 .bss           0x000000000011901c        0x0 binaries/rflinit.o
 .bss           0x000000000011901c        0x0 binaries/rflputc.o
 .bss           0x000000000011901c        0x0 binaries/rflread.o
 .bss           0x000000000011901c        0x0 binaries/rflseek.o
 .bss           0x000000000011901c        0x0 binaries/rflwrite.o
 .bss           0x000000000011901c        0x0 binaries/rfscomm.o
 .bss           0x000000000011901c        0x0 binaries/rfscontrol.o
 .bss           0x000000000011901c        0x0 binaries/rfsgetmode.o
 .bss           0x000000000011901c        0x0 binaries/rfsinit.o
 .bss           0x000000000011901c        0x0 binaries/rfsndmsg.o
 .bss           0x000000000011901c        0x0 binaries/rfsopen.o
 .bss           0x000000000011901c        0x0 binaries/arp.o
 .bss           0x000000000011901c        0x0 binaries/dhcp.o
 .bss           0x000000000011901c        0x0 binaries/dot2ip.o
 .bss           0x000000000011901c        0x0 binaries/hexdump.o
 .bss           0x000000000011901c        0x0 binaries/icmp.o
 .bss           0x000000000011901c        0x0 binaries/ip.o
 .bss           0x000000000011901c        0x0 binaries/net.o
 .bss           0x000000000011901c        0x0 binaries/netstart.o
 .bss           0x000000000011901c        0x0 binaries/pdump.o
 .bss           0x000000000011901c        0x0 binaries/tftp.o
 .bss           0x000000000011901c        0x0 binaries/udp.o
 .bss           0x000000000011901c        0x0 binaries/addargs.o
 .bss           0x000000000011901c        0x0 binaries/lexan.o
 .bss           0x000000000011901c        0x0 binaries/shell.o
 .bss           0x000000000011901c        0x0 binaries/xsh_argecho.o
 .bss           0x000000000011901c        0x0 binaries/xsh_arp.o
 .bss           0x000000000011901c        0x0 binaries/xsh_cat.o
 .bss           0x000000000011901c        0x0 binaries/xsh_clear.o
 .bss           0x000000000011901c        0x0 binaries/xsh_date.o
 .bss           0x000000000011901c        0x0 binaries/xsh_devdump.o
 .bss           0x000000000011901c        0x0 binaries/xsh_echo.o
 .bss           0x000000000011901c        0x0 binaries/xsh_exit.o
 .bss           0x000000000011901c        0x0 binaries/xsh_help.o
 .bss           0x000000000011901c        0x0 binaries/xsh_ipaddr.o
 .bss           0x000000000011901c        0x0 binaries/xsh_kill.o
 .bss           0x000000000011901c        0x0 binaries/xsh_memdump.o
 .bss           0x000000000011901c        0x0 binaries/xsh_memstat.o
 .bss           0x000000000011901c        0x4 binaries/xsh_ping.o
 .bss           0x0000000000119020        0x0 binaries/xsh_ps.o
 .bss           0x0000000000119020        0x0 binaries/xsh_sleep.o
 .bss           0x0000000000119020        0x0 binaries/xsh_udpdump.o
 .bss           0x0000000000119020        0x0 binaries/xsh_udpecho.o
 .bss           0x0000000000119020        0x0 binaries/xsh_udpeserver.o
 .bss           0x0000000000119020        0x0 binaries/xsh_uptime.o
 .bss           0x0000000000119020        0x0 binaries/clkdisp.o
 .bss           0x0000000000119020        0x0 binaries/ctxsw.o
 .bss           0x0000000000119020        0x0 binaries/intr.o
 .bss           0x0000000000119020        0x0 binaries/host2netla.o
 .bss           0x0000000000119020        0x0 binaries/ttydispatch.o
 .bss           0x0000000000119020        0x0 binaries/ethdispatch.o
 *(COMMON)
 COMMON         0x0000000000119020       0xf4 binaries/bufinit.o
                0x0000000000119020                buftab
                0x0000000000119110                nbpools
 COMMON         0x0000000000119114        0xc binaries/clkinit.o
                0x0000000000119114                sleepq
                0x0000000000119118                preempt
                0x000000000011911c                clktime
 COMMON         0x0000000000119120        0x2 binaries/evec.o
                0x0000000000119120                girmask
 *fill*         0x0000000000119122       0x1e 
 COMMON         0x0000000000119140     0x1ad8 binaries/initialize.o
                0x0000000000119140                currpid
                0x0000000000119160                proctab
                0x000000000011a740                prcount
                0x000000000011a760                semtab
                0x000000000011ac10                memlist
 *fill*         0x000000000011ac18        0x8 
 COMMON         0x000000000011ac20       0x58 binaries/mark.o
                0x000000000011ac20                marks
                0x000000000011ac70                nmarks
                0x000000000011ac74                mkmutex
 COMMON         0x000000000011ac78        0x8 binaries/meminit.o
                0x000000000011ac78                minheap
                0x000000000011ac7c                maxheap
 COMMON         0x000000000011ac80      0x2d8 binaries/ptinit.o
                0x000000000011ac80                porttab
                0x000000000011af50                ptnextid
                0x000000000011af54                ptfree
 *fill*         0x000000000011af58        0x8 
 COMMON         0x000000000011af60      0x980 binaries/queue.o
                0x000000000011af60                queuetab
 COMMON         0x000000000011b8e0        0x2 binaries/ready.o
                0x000000000011b8e0                readylist
 *fill*         0x000000000011b8e2        0x2 
 COMMON         0x000000000011b8e4        0x8 binaries/resched.o
                0x000000000011b8e4                Defer
 COMMON         0x000000000011b8ec        0x4 binaries/myhacker.o
                0x000000000011b8ec                plzhackme_content
 *fill*         0x000000000011b8f0       0x10 
 COMMON         0x000000000011b900      0x10c binaries/ttyinit.o
                0x000000000011b900                ttytab
 *fill*         0x000000000011ba0c       0x14 
 COMMON         0x000000000011ba20     0x19c0 binaries/naminit.o
                0x000000000011ba20                nnames
                0x000000000011ba40                nametab
 COMMON         0x000000000011d3e0      0x138 binaries/ethinit.o
                0x000000000011d3e0                ethertab
 *fill*         0x000000000011d518        0x8 
 COMMON         0x000000000011d520       0x8c binaries/rdsinit.o
                0x000000000011d520                rdstab
 *fill*         0x000000000011d5ac       0x14 
 COMMON         0x000000000011d5c0    0x19000 binaries/raminit.o
                0x000000000011d5c0                Ram
 COMMON         0x00000000001365c0      0xf00 binaries/lflinit.o
                0x00000000001365c0                lfltab
 COMMON         0x00000000001374c0      0x20c binaries/lfsinit.o
                0x00000000001374c0                Lf_data
 *fill*         0x00000000001376cc       0x14 
 COMMON         0x00000000001376e0      0x5a0 binaries/rflinit.o
                0x00000000001376e0                rfltab
 COMMON         0x0000000000137c80       0x18 binaries/rfsinit.o
                0x0000000000137c80                Rf_data
 *fill*         0x0000000000137c98        0x8 
 COMMON         0x0000000000137ca0      0x140 binaries/arp.o
                0x0000000000137ca0                arpcache
 COMMON         0x0000000000137de0      0x230 binaries/icmp.o
                0x0000000000137de0                icmptab
 *fill*         0x0000000000138010       0x10 
 COMMON         0x0000000000138020       0x2c binaries/ip.o
                0x0000000000138020                ipoqueue
 *fill*         0x000000000013804c       0x14 
 COMMON         0x0000000000138060       0xc8 binaries/net.o
                0x0000000000138060                netbufpool
                0x0000000000138080                NetData
 *fill*         0x0000000000138128       0x18 
 COMMON         0x0000000000138140      0x168 binaries/udp.o
                0x0000000000138140                udptab
                0x00000000001382a8                ebss = ABSOLUTE (.)
                0x0000000000139000                . = ALIGN (0x1000)
 *fill*         0x00000000001382a8      0xd58 
 */()
                0x0000000000139000                end = ABSOLUTE (.)
                0x0000000000139000                _end = ABSOLUTE (.)
                0x0000000000139000                . = ALIGN (0x1000)
LOAD binaries/start.o
LOAD binaries/ascdate.o
LOAD binaries/bufinit.o
LOAD binaries/chprio.o
LOAD binaries/clkhandler.o
LOAD binaries/clkinit.o
LOAD binaries/close.o
LOAD binaries/conf.o
LOAD binaries/control.o
LOAD binaries/create.o
LOAD binaries/early_imr.o
LOAD binaries/evec.o
LOAD binaries/freebuf.o
LOAD binaries/freemem.o
LOAD binaries/getbuf.o
LOAD binaries/getc.o
LOAD binaries/getdev.o
LOAD binaries/getitem.o
LOAD binaries/getmem.o
LOAD binaries/getpid.o
LOAD binaries/getprio.o
LOAD binaries/getstk.o
LOAD binaries/gettime.o
LOAD binaries/getutime.o
LOAD binaries/init.o
LOAD binaries/initialize.o
LOAD binaries/insert.o
LOAD binaries/insertd.o
LOAD binaries/ioerr.o
LOAD binaries/ionull.o
LOAD binaries/kill.o
LOAD binaries/kprintf.o
LOAD binaries/main.o
LOAD binaries/mark.o
LOAD binaries/meminit.o
LOAD binaries/mkbufpool.o
LOAD binaries/newqueue.o
LOAD binaries/open.o
LOAD binaries/panic.o
LOAD binaries/pci.o
LOAD binaries/platinit.o
LOAD binaries/ptclear.o
LOAD binaries/ptcount.o
LOAD binaries/ptcreate.o
LOAD binaries/ptdelete.o
LOAD binaries/ptinit.o
LOAD binaries/ptrecv.o
LOAD binaries/ptreset.o
LOAD binaries/ptsend.o
LOAD binaries/putc.o
LOAD binaries/quark_irq.o
LOAD binaries/quark_pdat.o
LOAD binaries/queue.o
LOAD binaries/read.o
LOAD binaries/ready.o
LOAD binaries/receive.o
LOAD binaries/recvclr.o
LOAD binaries/recvtime.o
LOAD binaries/resched.o
LOAD binaries/resume.o
LOAD binaries/seek.o
LOAD binaries/semcount.o
LOAD binaries/semcreate.o
LOAD binaries/semdelete.o
LOAD binaries/semreset.o
LOAD binaries/send.o
LOAD binaries/signal.o
LOAD binaries/signaln.o
LOAD binaries/sleep.o
LOAD binaries/stacktrace.o
LOAD binaries/suspend.o
LOAD binaries/unsleep.o
LOAD binaries/userret.o
LOAD binaries/wait.o
LOAD binaries/wakeup.o
LOAD binaries/write.o
LOAD binaries/xdone.o
LOAD binaries/yield.o
LOAD binaries/app1.o
LOAD binaries/app2.o
LOAD binaries/app3.o
LOAD binaries/getppid.o
LOAD binaries/getpstate.o
LOAD binaries/mywelcomemsg.o
LOAD binaries/host2netlb.o
LOAD binaries/host2netlc.o
LOAD binaries/prntsegaddr.o
LOAD binaries/stackdepth.o
LOAD binaries/stacktop.o
LOAD binaries/myappA.o
LOAD binaries/myhacker.o
LOAD binaries/myvictim.o
LOAD binaries/myhackermalware.o
LOAD binaries/abs.o
LOAD binaries/atoi.o
LOAD binaries/atol.o
LOAD binaries/bzero.o
LOAD binaries/ctype_.o
LOAD binaries/doprnt.o
LOAD binaries/doscan.o
LOAD binaries/fdoprnt.o
LOAD binaries/fgetc.o
LOAD binaries/fgets.o
LOAD binaries/fprintf.o
LOAD binaries/fputc.o
LOAD binaries/fputs.o
LOAD binaries/fscanf.o
LOAD binaries/getchar.o
LOAD binaries/labs.o
LOAD binaries/memchr.o
LOAD binaries/memcmp.o
LOAD binaries/memcpy.o
LOAD binaries/memset.o
LOAD binaries/printf.o
LOAD binaries/putchar.o
LOAD binaries/qsort.o
LOAD binaries/rand.o
LOAD binaries/sprintf.o
LOAD binaries/sscanf.o
LOAD binaries/strchr.o
LOAD binaries/strcmp.o
LOAD binaries/strcpy.o
LOAD binaries/strlen.o
LOAD binaries/strncat.o
LOAD binaries/strncmp.o
LOAD binaries/strncpy.o
LOAD binaries/strnlen.o
LOAD binaries/strrchr.o
LOAD binaries/strstr.o
LOAD binaries/ttycontrol.o
LOAD binaries/ttygetc.o
LOAD binaries/ttyhandle_in.o
LOAD binaries/ttyhandle_out.o
LOAD binaries/ttyhandler.o
LOAD binaries/ttyinit.o
LOAD binaries/ttykickout.o
LOAD binaries/ttyputc.o
LOAD binaries/ttyread.o
LOAD binaries/ttywrite.o
LOAD binaries/mount.o
LOAD binaries/naminit.o
LOAD binaries/nammap.o
LOAD binaries/namopen.o
LOAD binaries/colon2mac.o
LOAD binaries/ethcontrol.o
LOAD binaries/ethhandler.o
LOAD binaries/ethinit.o
LOAD binaries/ethmcast.o
LOAD binaries/ethread.o
LOAD binaries/ethwrite.o
LOAD binaries/rdsbufalloc.o
LOAD binaries/rdsclose.o
LOAD binaries/rdscomm.o
LOAD binaries/rdscontrol.o
LOAD binaries/rdsinit.o
LOAD binaries/rdsopen.o
LOAD binaries/rdsprocess.o
LOAD binaries/rdsread.o
LOAD binaries/rdswrite.o
LOAD binaries/ramclose.o
LOAD binaries/raminit.o
LOAD binaries/ramopen.o
LOAD binaries/ramread.o
LOAD binaries/ramwrite.o
LOAD binaries/lfdballoc.o
LOAD binaries/lfdbfree.o
LOAD binaries/lfflush.o
LOAD binaries/lfgetmode.o
LOAD binaries/lfiballoc.o
LOAD binaries/lfibclear.o
LOAD binaries/lfibget.o
LOAD binaries/lfibput.o
LOAD binaries/lflclose.o
LOAD binaries/lflcontrol.o
LOAD binaries/lflgetc.o
LOAD binaries/lflinit.o
LOAD binaries/lflputc.o
LOAD binaries/lflread.o
LOAD binaries/lflseek.o
LOAD binaries/lflwrite.o
LOAD binaries/lfsckfmt.o
LOAD binaries/lfscreate.o
LOAD binaries/lfsetup.o
LOAD binaries/lfsinit.o
LOAD binaries/lfsopen.o
LOAD binaries/lftruncate.o
LOAD binaries/rflclose.o
LOAD binaries/rflgetc.o
LOAD binaries/rflinit.o
LOAD binaries/rflputc.o
LOAD binaries/rflread.o
LOAD binaries/rflseek.o
LOAD binaries/rflwrite.o
LOAD binaries/rfscomm.o
LOAD binaries/rfscontrol.o
LOAD binaries/rfsgetmode.o
LOAD binaries/rfsinit.o
LOAD binaries/rfsndmsg.o
LOAD binaries/rfsopen.o
LOAD binaries/arp.o
LOAD binaries/dhcp.o
LOAD binaries/dot2ip.o
LOAD binaries/hexdump.o
LOAD binaries/icmp.o
LOAD binaries/ip.o
LOAD binaries/net.o
LOAD binaries/netstart.o
LOAD binaries/pdump.o
LOAD binaries/tftp.o
LOAD binaries/udp.o
LOAD binaries/addargs.o
LOAD binaries/lexan.o
LOAD binaries/shell.o
LOAD binaries/xsh_argecho.o
LOAD binaries/xsh_arp.o
LOAD binaries/xsh_cat.o
LOAD binaries/xsh_clear.o
LOAD binaries/xsh_date.o
LOAD binaries/xsh_devdump.o
LOAD binaries/xsh_echo.o
LOAD binaries/xsh_exit.o
LOAD binaries/xsh_help.o
LOAD binaries/xsh_ipaddr.o
LOAD binaries/xsh_kill.o
LOAD binaries/xsh_memdump.o
LOAD binaries/xsh_memstat.o
LOAD binaries/xsh_ping.o
LOAD binaries/xsh_ps.o
LOAD binaries/xsh_sleep.o
LOAD binaries/xsh_udpdump.o
LOAD binaries/xsh_udpecho.o
LOAD binaries/xsh_udpeserver.o
LOAD binaries/xsh_uptime.o
LOAD binaries/clkdisp.o
LOAD binaries/ctxsw.o
LOAD binaries/intr.o
LOAD binaries/host2netla.o
LOAD binaries/ttydispatch.o
LOAD binaries/ethdispatch.o
OUTPUT(../compile/xinu elf32-i386)

.comment        0x0000000000000000       0x2a
 .comment       0x0000000000000000       0x2a binaries/ascdate.o
                                         0x2b (size before relaxing)
 .comment       0x000000000000002a       0x2b binaries/bufinit.o
 .comment       0x000000000000002a       0x2b binaries/chprio.o
 .comment       0x000000000000002a       0x2b binaries/clkhandler.o
 .comment       0x000000000000002a       0x2b binaries/clkinit.o
 .comment       0x000000000000002a       0x2b binaries/close.o
 .comment       0x000000000000002a       0x2b binaries/conf.o
 .comment       0x000000000000002a       0x2b binaries/control.o
 .comment       0x000000000000002a       0x2b binaries/create.o
 .comment       0x000000000000002a       0x2b binaries/early_imr.o
 .comment       0x000000000000002a       0x2b binaries/evec.o
 .comment       0x000000000000002a       0x2b binaries/freebuf.o
 .comment       0x000000000000002a       0x2b binaries/freemem.o
 .comment       0x000000000000002a       0x2b binaries/getbuf.o
 .comment       0x000000000000002a       0x2b binaries/getc.o
 .comment       0x000000000000002a       0x2b binaries/getdev.o
 .comment       0x000000000000002a       0x2b binaries/getitem.o
 .comment       0x000000000000002a       0x2b binaries/getmem.o
 .comment       0x000000000000002a       0x2b binaries/getpid.o
 .comment       0x000000000000002a       0x2b binaries/getprio.o
 .comment       0x000000000000002a       0x2b binaries/getstk.o
 .comment       0x000000000000002a       0x2b binaries/gettime.o
 .comment       0x000000000000002a       0x2b binaries/getutime.o
 .comment       0x000000000000002a       0x2b binaries/init.o
 .comment       0x000000000000002a       0x2b binaries/initialize.o
 .comment       0x000000000000002a       0x2b binaries/insert.o
 .comment       0x000000000000002a       0x2b binaries/insertd.o
 .comment       0x000000000000002a       0x2b binaries/ioerr.o
 .comment       0x000000000000002a       0x2b binaries/ionull.o
 .comment       0x000000000000002a       0x2b binaries/kill.o
 .comment       0x000000000000002a       0x2b binaries/kprintf.o
 .comment       0x000000000000002a       0x2b binaries/main.o
 .comment       0x000000000000002a       0x2b binaries/mark.o
 .comment       0x000000000000002a       0x2b binaries/meminit.o
 .comment       0x000000000000002a       0x2b binaries/mkbufpool.o
 .comment       0x000000000000002a       0x2b binaries/newqueue.o
 .comment       0x000000000000002a       0x2b binaries/open.o
 .comment       0x000000000000002a       0x2b binaries/panic.o
 .comment       0x000000000000002a       0x2b binaries/pci.o
 .comment       0x000000000000002a       0x2b binaries/platinit.o
 .comment       0x000000000000002a       0x2b binaries/ptclear.o
 .comment       0x000000000000002a       0x2b binaries/ptcount.o
 .comment       0x000000000000002a       0x2b binaries/ptcreate.o
 .comment       0x000000000000002a       0x2b binaries/ptdelete.o
 .comment       0x000000000000002a       0x2b binaries/ptinit.o
 .comment       0x000000000000002a       0x2b binaries/ptrecv.o
 .comment       0x000000000000002a       0x2b binaries/ptreset.o
 .comment       0x000000000000002a       0x2b binaries/ptsend.o
 .comment       0x000000000000002a       0x2b binaries/putc.o
 .comment       0x000000000000002a       0x2b binaries/quark_irq.o
 .comment       0x000000000000002a       0x2b binaries/quark_pdat.o
 .comment       0x000000000000002a       0x2b binaries/queue.o
 .comment       0x000000000000002a       0x2b binaries/read.o
 .comment       0x000000000000002a       0x2b binaries/ready.o
 .comment       0x000000000000002a       0x2b binaries/receive.o
 .comment       0x000000000000002a       0x2b binaries/recvclr.o
 .comment       0x000000000000002a       0x2b binaries/recvtime.o
 .comment       0x000000000000002a       0x2b binaries/resched.o
 .comment       0x000000000000002a       0x2b binaries/resume.o
 .comment       0x000000000000002a       0x2b binaries/seek.o
 .comment       0x000000000000002a       0x2b binaries/semcount.o
 .comment       0x000000000000002a       0x2b binaries/semcreate.o
 .comment       0x000000000000002a       0x2b binaries/semdelete.o
 .comment       0x000000000000002a       0x2b binaries/semreset.o
 .comment       0x000000000000002a       0x2b binaries/send.o
 .comment       0x000000000000002a       0x2b binaries/signal.o
 .comment       0x000000000000002a       0x2b binaries/signaln.o
 .comment       0x000000000000002a       0x2b binaries/sleep.o
 .comment       0x000000000000002a       0x2b binaries/stacktrace.o
 .comment       0x000000000000002a       0x2b binaries/suspend.o
 .comment       0x000000000000002a       0x2b binaries/unsleep.o
 .comment       0x000000000000002a       0x2b binaries/userret.o
 .comment       0x000000000000002a       0x2b binaries/wait.o
 .comment       0x000000000000002a       0x2b binaries/wakeup.o
 .comment       0x000000000000002a       0x2b binaries/write.o
 .comment       0x000000000000002a       0x2b binaries/xdone.o
 .comment       0x000000000000002a       0x2b binaries/yield.o
 .comment       0x000000000000002a       0x2b binaries/app1.o
 .comment       0x000000000000002a       0x2b binaries/app2.o
 .comment       0x000000000000002a       0x2b binaries/app3.o
 .comment       0x000000000000002a       0x2b binaries/getppid.o
 .comment       0x000000000000002a       0x2b binaries/getpstate.o
 .comment       0x000000000000002a       0x2b binaries/mywelcomemsg.o
 .comment       0x000000000000002a       0x2b binaries/host2netlb.o
 .comment       0x000000000000002a       0x2b binaries/host2netlc.o
 .comment       0x000000000000002a       0x2b binaries/prntsegaddr.o
 .comment       0x000000000000002a       0x2b binaries/stackdepth.o
 .comment       0x000000000000002a       0x2b binaries/stacktop.o
 .comment       0x000000000000002a       0x2b binaries/myappA.o
 .comment       0x000000000000002a       0x2b binaries/myhacker.o
 .comment       0x000000000000002a       0x2b binaries/myvictim.o
 .comment       0x000000000000002a       0x2b binaries/myhackermalware.o
 .comment       0x000000000000002a       0x2b binaries/abs.o
 .comment       0x000000000000002a       0x2b binaries/atoi.o
 .comment       0x000000000000002a       0x2b binaries/atol.o
 .comment       0x000000000000002a       0x2b binaries/bzero.o
 .comment       0x000000000000002a       0x2b binaries/ctype_.o
 .comment       0x000000000000002a       0x2b binaries/doprnt.o
 .comment       0x000000000000002a       0x2b binaries/doscan.o
 .comment       0x000000000000002a       0x2b binaries/fdoprnt.o
 .comment       0x000000000000002a       0x2b binaries/fgetc.o
 .comment       0x000000000000002a       0x2b binaries/fgets.o
 .comment       0x000000000000002a       0x2b binaries/fprintf.o
 .comment       0x000000000000002a       0x2b binaries/fputc.o
 .comment       0x000000000000002a       0x2b binaries/fputs.o
 .comment       0x000000000000002a       0x2b binaries/fscanf.o
 .comment       0x000000000000002a       0x2b binaries/getchar.o
 .comment       0x000000000000002a       0x2b binaries/labs.o
 .comment       0x000000000000002a       0x2b binaries/memchr.o
 .comment       0x000000000000002a       0x2b binaries/memcmp.o
 .comment       0x000000000000002a       0x2b binaries/memcpy.o
 .comment       0x000000000000002a       0x2b binaries/memset.o
 .comment       0x000000000000002a       0x2b binaries/printf.o
 .comment       0x000000000000002a       0x2b binaries/putchar.o
 .comment       0x000000000000002a       0x2b binaries/qsort.o
 .comment       0x000000000000002a       0x2b binaries/rand.o
 .comment       0x000000000000002a       0x2b binaries/sprintf.o
 .comment       0x000000000000002a       0x2b binaries/sscanf.o
 .comment       0x000000000000002a       0x2b binaries/strchr.o
 .comment       0x000000000000002a       0x2b binaries/strcmp.o
 .comment       0x000000000000002a       0x2b binaries/strcpy.o
 .comment       0x000000000000002a       0x2b binaries/strlen.o
 .comment       0x000000000000002a       0x2b binaries/strncat.o
 .comment       0x000000000000002a       0x2b binaries/strncmp.o
 .comment       0x000000000000002a       0x2b binaries/strncpy.o
 .comment       0x000000000000002a       0x2b binaries/strnlen.o
 .comment       0x000000000000002a       0x2b binaries/strrchr.o
 .comment       0x000000000000002a       0x2b binaries/strstr.o
 .comment       0x000000000000002a       0x2b binaries/ttycontrol.o
 .comment       0x000000000000002a       0x2b binaries/ttygetc.o
 .comment       0x000000000000002a       0x2b binaries/ttyhandle_in.o
 .comment       0x000000000000002a       0x2b binaries/ttyhandle_out.o
 .comment       0x000000000000002a       0x2b binaries/ttyhandler.o
 .comment       0x000000000000002a       0x2b binaries/ttyinit.o
 .comment       0x000000000000002a       0x2b binaries/ttykickout.o
 .comment       0x000000000000002a       0x2b binaries/ttyputc.o
 .comment       0x000000000000002a       0x2b binaries/ttyread.o
 .comment       0x000000000000002a       0x2b binaries/ttywrite.o
 .comment       0x000000000000002a       0x2b binaries/mount.o
 .comment       0x000000000000002a       0x2b binaries/naminit.o
 .comment       0x000000000000002a       0x2b binaries/nammap.o
 .comment       0x000000000000002a       0x2b binaries/namopen.o
 .comment       0x000000000000002a       0x2b binaries/colon2mac.o
 .comment       0x000000000000002a       0x2b binaries/ethcontrol.o
 .comment       0x000000000000002a       0x2b binaries/ethhandler.o
 .comment       0x000000000000002a       0x2b binaries/ethinit.o
 .comment       0x000000000000002a       0x2b binaries/ethmcast.o
 .comment       0x000000000000002a       0x2b binaries/ethread.o
 .comment       0x000000000000002a       0x2b binaries/ethwrite.o
 .comment       0x000000000000002a       0x2b binaries/rdsbufalloc.o
 .comment       0x000000000000002a       0x2b binaries/rdsclose.o
 .comment       0x000000000000002a       0x2b binaries/rdscomm.o
 .comment       0x000000000000002a       0x2b binaries/rdscontrol.o
 .comment       0x000000000000002a       0x2b binaries/rdsinit.o
 .comment       0x000000000000002a       0x2b binaries/rdsopen.o
 .comment       0x000000000000002a       0x2b binaries/rdsprocess.o
 .comment       0x000000000000002a       0x2b binaries/rdsread.o
 .comment       0x000000000000002a       0x2b binaries/rdswrite.o
 .comment       0x000000000000002a       0x2b binaries/ramclose.o
 .comment       0x000000000000002a       0x2b binaries/raminit.o
 .comment       0x000000000000002a       0x2b binaries/ramopen.o
 .comment       0x000000000000002a       0x2b binaries/ramread.o
 .comment       0x000000000000002a       0x2b binaries/ramwrite.o
 .comment       0x000000000000002a       0x2b binaries/lfdballoc.o
 .comment       0x000000000000002a       0x2b binaries/lfdbfree.o
 .comment       0x000000000000002a       0x2b binaries/lfflush.o
 .comment       0x000000000000002a       0x2b binaries/lfgetmode.o
 .comment       0x000000000000002a       0x2b binaries/lfiballoc.o
 .comment       0x000000000000002a       0x2b binaries/lfibclear.o
 .comment       0x000000000000002a       0x2b binaries/lfibget.o
 .comment       0x000000000000002a       0x2b binaries/lfibput.o
 .comment       0x000000000000002a       0x2b binaries/lflclose.o
 .comment       0x000000000000002a       0x2b binaries/lflcontrol.o
 .comment       0x000000000000002a       0x2b binaries/lflgetc.o
 .comment       0x000000000000002a       0x2b binaries/lflinit.o
 .comment       0x000000000000002a       0x2b binaries/lflputc.o
 .comment       0x000000000000002a       0x2b binaries/lflread.o
 .comment       0x000000000000002a       0x2b binaries/lflseek.o
 .comment       0x000000000000002a       0x2b binaries/lflwrite.o
 .comment       0x000000000000002a       0x2b binaries/lfsckfmt.o
 .comment       0x000000000000002a       0x2b binaries/lfscreate.o
 .comment       0x000000000000002a       0x2b binaries/lfsetup.o
 .comment       0x000000000000002a       0x2b binaries/lfsinit.o
 .comment       0x000000000000002a       0x2b binaries/lfsopen.o
 .comment       0x000000000000002a       0x2b binaries/lftruncate.o
 .comment       0x000000000000002a       0x2b binaries/rflclose.o
 .comment       0x000000000000002a       0x2b binaries/rflgetc.o
 .comment       0x000000000000002a       0x2b binaries/rflinit.o
 .comment       0x000000000000002a       0x2b binaries/rflputc.o
 .comment       0x000000000000002a       0x2b binaries/rflread.o
 .comment       0x000000000000002a       0x2b binaries/rflseek.o
 .comment       0x000000000000002a       0x2b binaries/rflwrite.o
 .comment       0x000000000000002a       0x2b binaries/rfscomm.o
 .comment       0x000000000000002a       0x2b binaries/rfscontrol.o
 .comment       0x000000000000002a       0x2b binaries/rfsgetmode.o
 .comment       0x000000000000002a       0x2b binaries/rfsinit.o
 .comment       0x000000000000002a       0x2b binaries/rfsndmsg.o
 .comment       0x000000000000002a       0x2b binaries/rfsopen.o
 .comment       0x000000000000002a       0x2b binaries/arp.o
 .comment       0x000000000000002a       0x2b binaries/dhcp.o
 .comment       0x000000000000002a       0x2b binaries/dot2ip.o
 .comment       0x000000000000002a       0x2b binaries/hexdump.o
 .comment       0x000000000000002a       0x2b binaries/icmp.o
 .comment       0x000000000000002a       0x2b binaries/ip.o
 .comment       0x000000000000002a       0x2b binaries/net.o
 .comment       0x000000000000002a       0x2b binaries/netstart.o
 .comment       0x000000000000002a       0x2b binaries/pdump.o
 .comment       0x000000000000002a       0x2b binaries/tftp.o
 .comment       0x000000000000002a       0x2b binaries/udp.o
 .comment       0x000000000000002a       0x2b binaries/addargs.o
 .comment       0x000000000000002a       0x2b binaries/lexan.o
 .comment       0x000000000000002a       0x2b binaries/shell.o
 .comment       0x000000000000002a       0x2b binaries/xsh_argecho.o
 .comment       0x000000000000002a       0x2b binaries/xsh_arp.o
 .comment       0x000000000000002a       0x2b binaries/xsh_cat.o
 .comment       0x000000000000002a       0x2b binaries/xsh_clear.o
 .comment       0x000000000000002a       0x2b binaries/xsh_date.o
 .comment       0x000000000000002a       0x2b binaries/xsh_devdump.o
 .comment       0x000000000000002a       0x2b binaries/xsh_echo.o
 .comment       0x000000000000002a       0x2b binaries/xsh_exit.o
 .comment       0x000000000000002a       0x2b binaries/xsh_help.o
 .comment       0x000000000000002a       0x2b binaries/xsh_ipaddr.o
 .comment       0x000000000000002a       0x2b binaries/xsh_kill.o
 .comment       0x000000000000002a       0x2b binaries/xsh_memdump.o
 .comment       0x000000000000002a       0x2b binaries/xsh_memstat.o
 .comment       0x000000000000002a       0x2b binaries/xsh_ping.o
 .comment       0x000000000000002a       0x2b binaries/xsh_ps.o
 .comment       0x000000000000002a       0x2b binaries/xsh_sleep.o
 .comment       0x000000000000002a       0x2b binaries/xsh_udpdump.o
 .comment       0x000000000000002a       0x2b binaries/xsh_udpecho.o
 .comment       0x000000000000002a       0x2b binaries/xsh_udpeserver.o
 .comment       0x000000000000002a       0x2b binaries/xsh_uptime.o

.note.GNU-stack
                0x0000000000000000        0x0
 .note.GNU-stack
                0x0000000000000000        0x0 binaries/ascdate.o
 .note.GNU-stack
                0x0000000000000000        0x0 binaries/bufinit.o
 .note.GNU-stack
                0x0000000000000000        0x0 binaries/chprio.o
 .note.GNU-stack
                0x0000000000000000        0x0 binaries/clkhandler.o
 .note.GNU-stack
                0x0000000000000000        0x0 binaries/clkinit.o
 .note.GNU-stack
                0x0000000000000000        0x0 binaries/close.o
 .note.GNU-stack
                0x0000000000000000        0x0 binaries/conf.o
 .note.GNU-stack
                0x0000000000000000        0x0 binaries/control.o
 .note.GNU-stack
                0x0000000000000000        0x0 binaries/create.o
 .note.GNU-stack
                0x0000000000000000        0x0 binaries/early_imr.o
 .note.GNU-stack
                0x0000000000000000        0x0 binaries/evec.o
 .note.GNU-stack
                0x0000000000000000        0x0 binaries/freebuf.o
 .note.GNU-stack
                0x0000000000000000        0x0 binaries/freemem.o
 .note.GNU-stack
                0x0000000000000000        0x0 binaries/getbuf.o
 .note.GNU-stack
                0x0000000000000000        0x0 binaries/getc.o
 .note.GNU-stack
                0x0000000000000000        0x0 binaries/getdev.o
 .note.GNU-stack
                0x0000000000000000        0x0 binaries/getitem.o
 .note.GNU-stack
                0x0000000000000000        0x0 binaries/getmem.o
 .note.GNU-stack
                0x0000000000000000        0x0 binaries/getpid.o
 .note.GNU-stack
                0x0000000000000000        0x0 binaries/getprio.o
 .note.GNU-stack
                0x0000000000000000        0x0 binaries/getstk.o
 .note.GNU-stack
                0x0000000000000000        0x0 binaries/gettime.o
 .note.GNU-stack
                0x0000000000000000        0x0 binaries/getutime.o
 .note.GNU-stack
                0x0000000000000000        0x0 binaries/init.o
 .note.GNU-stack
                0x0000000000000000        0x0 binaries/initialize.o
 .note.GNU-stack
                0x0000000000000000        0x0 binaries/insert.o
 .note.GNU-stack
                0x0000000000000000        0x0 binaries/insertd.o
 .note.GNU-stack
                0x0000000000000000        0x0 binaries/ioerr.o
 .note.GNU-stack
                0x0000000000000000        0x0 binaries/ionull.o
 .note.GNU-stack
                0x0000000000000000        0x0 binaries/kill.o
 .note.GNU-stack
                0x0000000000000000        0x0 binaries/kprintf.o
 .note.GNU-stack
                0x0000000000000000        0x0 binaries/main.o
 .note.GNU-stack
                0x0000000000000000        0x0 binaries/mark.o
 .note.GNU-stack
                0x0000000000000000        0x0 binaries/meminit.o
 .note.GNU-stack
                0x0000000000000000        0x0 binaries/mkbufpool.o
 .note.GNU-stack
                0x0000000000000000        0x0 binaries/newqueue.o
 .note.GNU-stack
                0x0000000000000000        0x0 binaries/open.o
 .note.GNU-stack
                0x0000000000000000        0x0 binaries/panic.o
 .note.GNU-stack
                0x0000000000000000        0x0 binaries/pci.o
 .note.GNU-stack
                0x0000000000000000        0x0 binaries/platinit.o
 .note.GNU-stack
                0x0000000000000000        0x0 binaries/ptclear.o
 .note.GNU-stack
                0x0000000000000000        0x0 binaries/ptcount.o
 .note.GNU-stack
                0x0000000000000000        0x0 binaries/ptcreate.o
 .note.GNU-stack
                0x0000000000000000        0x0 binaries/ptdelete.o
 .note.GNU-stack
                0x0000000000000000        0x0 binaries/ptinit.o
 .note.GNU-stack
                0x0000000000000000        0x0 binaries/ptrecv.o
 .note.GNU-stack
                0x0000000000000000        0x0 binaries/ptreset.o
 .note.GNU-stack
                0x0000000000000000        0x0 binaries/ptsend.o
 .note.GNU-stack
                0x0000000000000000        0x0 binaries/putc.o
 .note.GNU-stack
                0x0000000000000000        0x0 binaries/quark_irq.o
 .note.GNU-stack
                0x0000000000000000        0x0 binaries/quark_pdat.o
 .note.GNU-stack
                0x0000000000000000        0x0 binaries/queue.o
 .note.GNU-stack
                0x0000000000000000        0x0 binaries/read.o
 .note.GNU-stack
                0x0000000000000000        0x0 binaries/ready.o
 .note.GNU-stack
                0x0000000000000000        0x0 binaries/receive.o
 .note.GNU-stack
                0x0000000000000000        0x0 binaries/recvclr.o
 .note.GNU-stack
                0x0000000000000000        0x0 binaries/recvtime.o
 .note.GNU-stack
                0x0000000000000000        0x0 binaries/resched.o
 .note.GNU-stack
                0x0000000000000000        0x0 binaries/resume.o
 .note.GNU-stack
                0x0000000000000000        0x0 binaries/seek.o
 .note.GNU-stack
                0x0000000000000000        0x0 binaries/semcount.o
 .note.GNU-stack
                0x0000000000000000        0x0 binaries/semcreate.o
 .note.GNU-stack
                0x0000000000000000        0x0 binaries/semdelete.o
 .note.GNU-stack
                0x0000000000000000        0x0 binaries/semreset.o
 .note.GNU-stack
                0x0000000000000000        0x0 binaries/send.o
 .note.GNU-stack
                0x0000000000000000        0x0 binaries/signal.o
 .note.GNU-stack
                0x0000000000000000        0x0 binaries/signaln.o
 .note.GNU-stack
                0x0000000000000000        0x0 binaries/sleep.o
 .note.GNU-stack
                0x0000000000000000        0x0 binaries/stacktrace.o
 .note.GNU-stack
                0x0000000000000000        0x0 binaries/suspend.o
 .note.GNU-stack
                0x0000000000000000        0x0 binaries/unsleep.o
 .note.GNU-stack
                0x0000000000000000        0x0 binaries/userret.o
 .note.GNU-stack
                0x0000000000000000        0x0 binaries/wait.o
 .note.GNU-stack
                0x0000000000000000        0x0 binaries/wakeup.o
 .note.GNU-stack
                0x0000000000000000        0x0 binaries/write.o
 .note.GNU-stack
                0x0000000000000000        0x0 binaries/xdone.o
 .note.GNU-stack
                0x0000000000000000        0x0 binaries/yield.o
 .note.GNU-stack
                0x0000000000000000        0x0 binaries/app1.o
 .note.GNU-stack
                0x0000000000000000        0x0 binaries/app2.o
 .note.GNU-stack
                0x0000000000000000        0x0 binaries/app3.o
 .note.GNU-stack
                0x0000000000000000        0x0 binaries/getppid.o
 .note.GNU-stack
                0x0000000000000000        0x0 binaries/getpstate.o
 .note.GNU-stack
                0x0000000000000000        0x0 binaries/mywelcomemsg.o
 .note.GNU-stack
                0x0000000000000000        0x0 binaries/host2netlb.o
 .note.GNU-stack
                0x0000000000000000        0x0 binaries/host2netlc.o
 .note.GNU-stack
                0x0000000000000000        0x0 binaries/prntsegaddr.o
 .note.GNU-stack
                0x0000000000000000        0x0 binaries/stackdepth.o
 .note.GNU-stack
                0x0000000000000000        0x0 binaries/stacktop.o
 .note.GNU-stack
                0x0000000000000000        0x0 binaries/myappA.o
 .note.GNU-stack
                0x0000000000000000        0x0 binaries/myhacker.o
 .note.GNU-stack
                0x0000000000000000        0x0 binaries/myvictim.o
 .note.GNU-stack
                0x0000000000000000        0x0 binaries/myhackermalware.o
 .note.GNU-stack
                0x0000000000000000        0x0 binaries/abs.o
 .note.GNU-stack
                0x0000000000000000        0x0 binaries/atoi.o
 .note.GNU-stack
                0x0000000000000000        0x0 binaries/atol.o
 .note.GNU-stack
                0x0000000000000000        0x0 binaries/bzero.o
 .note.GNU-stack
                0x0000000000000000        0x0 binaries/ctype_.o
 .note.GNU-stack
                0x0000000000000000        0x0 binaries/doprnt.o
 .note.GNU-stack
                0x0000000000000000        0x0 binaries/doscan.o
 .note.GNU-stack
                0x0000000000000000        0x0 binaries/fdoprnt.o
 .note.GNU-stack
                0x0000000000000000        0x0 binaries/fgetc.o
 .note.GNU-stack
                0x0000000000000000        0x0 binaries/fgets.o
 .note.GNU-stack
                0x0000000000000000        0x0 binaries/fprintf.o
 .note.GNU-stack
                0x0000000000000000        0x0 binaries/fputc.o
 .note.GNU-stack
                0x0000000000000000        0x0 binaries/fputs.o
 .note.GNU-stack
                0x0000000000000000        0x0 binaries/fscanf.o
 .note.GNU-stack
                0x0000000000000000        0x0 binaries/getchar.o
 .note.GNU-stack
                0x0000000000000000        0x0 binaries/labs.o
 .note.GNU-stack
                0x0000000000000000        0x0 binaries/memchr.o
 .note.GNU-stack
                0x0000000000000000        0x0 binaries/memcmp.o
 .note.GNU-stack
                0x0000000000000000        0x0 binaries/memcpy.o
 .note.GNU-stack
                0x0000000000000000        0x0 binaries/memset.o
 .note.GNU-stack
                0x0000000000000000        0x0 binaries/printf.o
 .note.GNU-stack
                0x0000000000000000        0x0 binaries/putchar.o
 .note.GNU-stack
                0x0000000000000000        0x0 binaries/qsort.o
 .note.GNU-stack
                0x0000000000000000        0x0 binaries/rand.o
 .note.GNU-stack
                0x0000000000000000        0x0 binaries/sprintf.o
 .note.GNU-stack
                0x0000000000000000        0x0 binaries/sscanf.o
 .note.GNU-stack
                0x0000000000000000        0x0 binaries/strchr.o
 .note.GNU-stack
                0x0000000000000000        0x0 binaries/strcmp.o
 .note.GNU-stack
                0x0000000000000000        0x0 binaries/strcpy.o
 .note.GNU-stack
                0x0000000000000000        0x0 binaries/strlen.o
 .note.GNU-stack
                0x0000000000000000        0x0 binaries/strncat.o
 .note.GNU-stack
                0x0000000000000000        0x0 binaries/strncmp.o
 .note.GNU-stack
                0x0000000000000000        0x0 binaries/strncpy.o
 .note.GNU-stack
                0x0000000000000000        0x0 binaries/strnlen.o
 .note.GNU-stack
                0x0000000000000000        0x0 binaries/strrchr.o
 .note.GNU-stack
                0x0000000000000000        0x0 binaries/strstr.o
 .note.GNU-stack
                0x0000000000000000        0x0 binaries/ttycontrol.o
 .note.GNU-stack
                0x0000000000000000        0x0 binaries/ttygetc.o
 .note.GNU-stack
                0x0000000000000000        0x0 binaries/ttyhandle_in.o
 .note.GNU-stack
                0x0000000000000000        0x0 binaries/ttyhandle_out.o
 .note.GNU-stack
                0x0000000000000000        0x0 binaries/ttyhandler.o
 .note.GNU-stack
                0x0000000000000000        0x0 binaries/ttyinit.o
 .note.GNU-stack
                0x0000000000000000        0x0 binaries/ttykickout.o
 .note.GNU-stack
                0x0000000000000000        0x0 binaries/ttyputc.o
 .note.GNU-stack
                0x0000000000000000        0x0 binaries/ttyread.o
 .note.GNU-stack
                0x0000000000000000        0x0 binaries/ttywrite.o
 .note.GNU-stack
                0x0000000000000000        0x0 binaries/mount.o
 .note.GNU-stack
                0x0000000000000000        0x0 binaries/naminit.o
 .note.GNU-stack
                0x0000000000000000        0x0 binaries/nammap.o
 .note.GNU-stack
                0x0000000000000000        0x0 binaries/namopen.o
 .note.GNU-stack
                0x0000000000000000        0x0 binaries/colon2mac.o
 .note.GNU-stack
                0x0000000000000000        0x0 binaries/ethcontrol.o
 .note.GNU-stack
                0x0000000000000000        0x0 binaries/ethhandler.o
 .note.GNU-stack
                0x0000000000000000        0x0 binaries/ethinit.o
 .note.GNU-stack
                0x0000000000000000        0x0 binaries/ethmcast.o
 .note.GNU-stack
                0x0000000000000000        0x0 binaries/ethread.o
 .note.GNU-stack
                0x0000000000000000        0x0 binaries/ethwrite.o
 .note.GNU-stack
                0x0000000000000000        0x0 binaries/rdsbufalloc.o
 .note.GNU-stack
                0x0000000000000000        0x0 binaries/rdsclose.o
 .note.GNU-stack
                0x0000000000000000        0x0 binaries/rdscomm.o
 .note.GNU-stack
                0x0000000000000000        0x0 binaries/rdscontrol.o
 .note.GNU-stack
                0x0000000000000000        0x0 binaries/rdsinit.o
 .note.GNU-stack
                0x0000000000000000        0x0 binaries/rdsopen.o
 .note.GNU-stack
                0x0000000000000000        0x0 binaries/rdsprocess.o
 .note.GNU-stack
                0x0000000000000000        0x0 binaries/rdsread.o
 .note.GNU-stack
                0x0000000000000000        0x0 binaries/rdswrite.o
 .note.GNU-stack
                0x0000000000000000        0x0 binaries/ramclose.o
 .note.GNU-stack
                0x0000000000000000        0x0 binaries/raminit.o
 .note.GNU-stack
                0x0000000000000000        0x0 binaries/ramopen.o
 .note.GNU-stack
                0x0000000000000000        0x0 binaries/ramread.o
 .note.GNU-stack
                0x0000000000000000        0x0 binaries/ramwrite.o
 .note.GNU-stack
                0x0000000000000000        0x0 binaries/lfdballoc.o
 .note.GNU-stack
                0x0000000000000000        0x0 binaries/lfdbfree.o
 .note.GNU-stack
                0x0000000000000000        0x0 binaries/lfflush.o
 .note.GNU-stack
                0x0000000000000000        0x0 binaries/lfgetmode.o
 .note.GNU-stack
                0x0000000000000000        0x0 binaries/lfiballoc.o
 .note.GNU-stack
                0x0000000000000000        0x0 binaries/lfibclear.o
 .note.GNU-stack
                0x0000000000000000        0x0 binaries/lfibget.o
 .note.GNU-stack
                0x0000000000000000        0x0 binaries/lfibput.o
 .note.GNU-stack
                0x0000000000000000        0x0 binaries/lflclose.o
 .note.GNU-stack
                0x0000000000000000        0x0 binaries/lflcontrol.o
 .note.GNU-stack
                0x0000000000000000        0x0 binaries/lflgetc.o
 .note.GNU-stack
                0x0000000000000000        0x0 binaries/lflinit.o
 .note.GNU-stack
                0x0000000000000000        0x0 binaries/lflputc.o
 .note.GNU-stack
                0x0000000000000000        0x0 binaries/lflread.o
 .note.GNU-stack
                0x0000000000000000        0x0 binaries/lflseek.o
 .note.GNU-stack
                0x0000000000000000        0x0 binaries/lflwrite.o
 .note.GNU-stack
                0x0000000000000000        0x0 binaries/lfsckfmt.o
 .note.GNU-stack
                0x0000000000000000        0x0 binaries/lfscreate.o
 .note.GNU-stack
                0x0000000000000000        0x0 binaries/lfsetup.o
 .note.GNU-stack
                0x0000000000000000        0x0 binaries/lfsinit.o
 .note.GNU-stack
                0x0000000000000000        0x0 binaries/lfsopen.o
 .note.GNU-stack
                0x0000000000000000        0x0 binaries/lftruncate.o
 .note.GNU-stack
                0x0000000000000000        0x0 binaries/rflclose.o
 .note.GNU-stack
                0x0000000000000000        0x0 binaries/rflgetc.o
 .note.GNU-stack
                0x0000000000000000        0x0 binaries/rflinit.o
 .note.GNU-stack
                0x0000000000000000        0x0 binaries/rflputc.o
 .note.GNU-stack
                0x0000000000000000        0x0 binaries/rflread.o
 .note.GNU-stack
                0x0000000000000000        0x0 binaries/rflseek.o
 .note.GNU-stack
                0x0000000000000000        0x0 binaries/rflwrite.o
 .note.GNU-stack
                0x0000000000000000        0x0 binaries/rfscomm.o
 .note.GNU-stack
                0x0000000000000000        0x0 binaries/rfscontrol.o
 .note.GNU-stack
                0x0000000000000000        0x0 binaries/rfsgetmode.o
 .note.GNU-stack
                0x0000000000000000        0x0 binaries/rfsinit.o
 .note.GNU-stack
                0x0000000000000000        0x0 binaries/rfsndmsg.o
 .note.GNU-stack
                0x0000000000000000        0x0 binaries/rfsopen.o
 .note.GNU-stack
                0x0000000000000000        0x0 binaries/arp.o
 .note.GNU-stack
                0x0000000000000000        0x0 binaries/dhcp.o
 .note.GNU-stack
                0x0000000000000000        0x0 binaries/dot2ip.o
 .note.GNU-stack
                0x0000000000000000        0x0 binaries/hexdump.o
 .note.GNU-stack
                0x0000000000000000        0x0 binaries/icmp.o
 .note.GNU-stack
                0x0000000000000000        0x0 binaries/ip.o
 .note.GNU-stack
                0x0000000000000000        0x0 binaries/net.o
 .note.GNU-stack
                0x0000000000000000        0x0 binaries/netstart.o
 .note.GNU-stack
                0x0000000000000000        0x0 binaries/pdump.o
 .note.GNU-stack
                0x0000000000000000        0x0 binaries/tftp.o
 .note.GNU-stack
                0x0000000000000000        0x0 binaries/udp.o
 .note.GNU-stack
                0x0000000000000000        0x0 binaries/addargs.o
 .note.GNU-stack
                0x0000000000000000        0x0 binaries/lexan.o
 .note.GNU-stack
                0x0000000000000000        0x0 binaries/shell.o
 .note.GNU-stack
                0x0000000000000000        0x0 binaries/xsh_argecho.o
 .note.GNU-stack
                0x0000000000000000        0x0 binaries/xsh_arp.o
 .note.GNU-stack
                0x0000000000000000        0x0 binaries/xsh_cat.o
 .note.GNU-stack
                0x0000000000000000        0x0 binaries/xsh_clear.o
 .note.GNU-stack
                0x0000000000000000        0x0 binaries/xsh_date.o
 .note.GNU-stack
                0x0000000000000000        0x0 binaries/xsh_devdump.o
 .note.GNU-stack
                0x0000000000000000        0x0 binaries/xsh_echo.o
 .note.GNU-stack
                0x0000000000000000        0x0 binaries/xsh_exit.o
 .note.GNU-stack
                0x0000000000000000        0x0 binaries/xsh_help.o
 .note.GNU-stack
                0x0000000000000000        0x0 binaries/xsh_ipaddr.o
 .note.GNU-stack
                0x0000000000000000        0x0 binaries/xsh_kill.o
 .note.GNU-stack
                0x0000000000000000        0x0 binaries/xsh_memdump.o
 .note.GNU-stack
                0x0000000000000000        0x0 binaries/xsh_memstat.o
 .note.GNU-stack
                0x0000000000000000        0x0 binaries/xsh_ping.o
 .note.GNU-stack
                0x0000000000000000        0x0 binaries/xsh_ps.o
 .note.GNU-stack
                0x0000000000000000        0x0 binaries/xsh_sleep.o
 .note.GNU-stack
                0x0000000000000000        0x0 binaries/xsh_udpdump.o
 .note.GNU-stack
                0x0000000000000000        0x0 binaries/xsh_udpecho.o
 .note.GNU-stack
                0x0000000000000000        0x0 binaries/xsh_udpeserver.o
 .note.GNU-stack
                0x0000000000000000        0x0 binaries/xsh_uptime.o
