
Allocating common symbols
Common symbol       size              file

netbufpool          0x4               binaries/net.o
readylist           0x2               binaries/ready.o
rfltab              0x5a0             binaries/rflinit.o
plzhackme_content   0x4               binaries/myhacker.o
sleepq              0x2               binaries/clkinit.o
nnames              0x4               binaries/naminit.o
udptab              0x168             binaries/udp.o
minheap             0x4               binaries/meminit.o
marks               0x50              binaries/mark.o
currpid             0x4               binaries/initialize.o
Lf_data             0x20c             binaries/lfsinit.o
porttab             0x2d0             binaries/ptinit.o
girmask             0x2               binaries/evec.o
ttytab              0x10c             binaries/ttyinit.o
proctab             0x1c20            binaries/initialize.o
prcount             0x4               binaries/initialize.o
lfltab              0xf00             binaries/lflinit.o
rdstab              0x8c              binaries/rdsinit.o
ethertab            0x138             binaries/ethinit.o
NetData             0xa8              binaries/net.o
nmarks              0x4               binaries/mark.o
Defer               0x8               binaries/resched.o
semtab              0x4b0             binaries/initialize.o
maxheap             0x4               binaries/meminit.o
preempt             0x4               binaries/clkinit.o
buftab              0xf0              binaries/bufinit.o
Rf_data             0x18              binaries/rfsinit.o
mkmutex             0x4               binaries/mark.o
clktimemsec         0x4               binaries/clkinit.o
clktime             0x4               binaries/clkinit.o
arpcache            0x140             binaries/arp.o
icmptab             0x230             binaries/icmp.o
nbpools             0x4               binaries/bufinit.o
queuetab            0x980             binaries/queue.o
ptnextid            0x4               binaries/ptinit.o
Ram                 0x19000           binaries/raminit.o
ipoqueue            0x2c              binaries/ip.o
memlist             0x8               binaries/initialize.o
nametab             0x19a0            binaries/naminit.o
ptfree              0x4               binaries/ptinit.o

Memory Configuration

Name             Origin             Length             Attributes
*default*        0x0000000000000000 0xffffffffffffffff

Linker script and memory map

                0x0000000000100000                physbase = 0x100000
                0x0000000000100000                . = physbase
                0x0000000000100000                . = ALIGN (0x1000)

.text           0x0000000000100000    0x15000
                0x0000000000100000                text = ABSOLUTE (.)
 *(.text .text.*)
 .text          0x0000000000100000      0x1ab binaries/start.o
                0x0000000000100028                start
                0x00000000001000f9                inb
                0x0000000000100101                inw
                0x000000000010010a                inl
                0x0000000000100112                outb
                0x000000000010011c                outw
                0x0000000000100127                outl
                0x0000000000100131                _rtcin
                0x000000000010013c                ___udivsi3
                0x0000000000100147                ___divsi3
                0x0000000000100153                sbzero
                0x0000000000100163                bcopy
                0x0000000000100177                insw
                0x000000000010018d                outsw
                0x00000000001001a3                lidt
 .text          0x00000000001001ab      0x2b9 binaries/ascdate.o
                0x00000000001001ab                ascdate
 .text          0x0000000000100464       0x14 binaries/bufinit.o
                0x0000000000100464                bufinit
 .text          0x0000000000100478       0x6a binaries/chprio.o
                0x0000000000100478                chprio
 .text          0x00000000001004e2       0x7a binaries/clkhandler.o
                0x00000000001004e2                clkhandler
 .text          0x000000000010055c       0x5d binaries/clkinit.o
                0x000000000010055c                clkinit
 .text          0x00000000001005b9       0x56 binaries/close.o
                0x00000000001005b9                close
 .text          0x000000000010060f        0x0 binaries/conf.o
 .text          0x000000000010060f       0x5c binaries/control.o
                0x000000000010060f                control
 .text          0x000000000010066b      0x221 binaries/create.o
                0x000000000010066b                create
 .text          0x000000000010088c      0x20e binaries/early_imr.o
                0x000000000010088c                intel_cln_early_sb_read_reg
                0x00000000001008e3                intel_cln_early_sb_write_reg
                0x000000000010099d                remove_irm_protections
 .text          0x0000000000100a9a      0x2e0 binaries/evec.o
                0x0000000000100a9a                setirmask
                0x0000000000100ad2                set_evec
                0x0000000000100b2d                initevec
                0x0000000000100bff                trap
 .text          0x0000000000100d7a       0x7f binaries/freebuf.o
                0x0000000000100d7a                freebuf
 .text          0x0000000000100df9      0x108 binaries/freemem.o
                0x0000000000100df9                freemem
 .text          0x0000000000100f01       0x6e binaries/getbuf.o
                0x0000000000100f01                getbuf
 .text          0x0000000000100f6f       0x56 binaries/getc.o
                0x0000000000100f6f                getc
 .text          0x0000000000100fc5       0x69 binaries/getdev.o
                0x0000000000100fc5                getdev
 .text          0x000000000010102e       0x82 binaries/getitem.o
                0x000000000010102e                getitem
                0x000000000010105d                getfirst
                0x0000000000101084                getlast
 .text          0x00000000001010b0       0xc2 binaries/getmem.o
                0x00000000001010b0                getmem
 .text          0x0000000000101172        0xa binaries/getpid.o
                0x0000000000101172                getpid
 .text          0x000000000010117c       0x54 binaries/getprio.o
                0x000000000010117c                getprio
 .text          0x00000000001011d0       0xac binaries/getstk.o
                0x00000000001011d0                getstk
 .text          0x000000000010127c       0x32 binaries/gettime.o
                0x000000000010127c                gettime
 .text          0x00000000001012ae      0x188 binaries/getutime.o
                0x00000000001012ae                getutime
 .text          0x0000000000101436       0x56 binaries/init.o
                0x0000000000101436                init
 .text          0x000000000010148c      0x249 binaries/initialize.o
                0x000000000010148c                nulluser
                0x000000000010168b                stop
                0x00000000001016af                delay
 .text          0x00000000001016d5       0x97 binaries/insert.o
                0x00000000001016d5                insert
 .text          0x000000000010176c       0xe7 binaries/insertd.o
                0x000000000010176c                insertd
 .text          0x0000000000101853        0xa binaries/ioerr.o
                0x0000000000101853                ioerr
 .text          0x000000000010185d        0xa binaries/ionull.o
                0x000000000010185d                ionull
 .text          0x0000000000101867      0x165 binaries/kill.o
                0x0000000000101867                kill
 .text          0x00000000001019cc       0xb3 binaries/kprintf.o
                0x00000000001019cc                kputc
                0x00000000001019fe                console_init
                0x0000000000101a31                kgetc
                0x0000000000101a57                kprintf
                0x0000000000101a75                dont_print
 .text          0x0000000000101a7f       0x78 binaries/main.o
                0x0000000000101a7f                main
 .text          0x0000000000101af7       0x99 binaries/mark.o
                0x0000000000101af7                markinit
                0x0000000000101b18                mark
 .text          0x0000000000101b90      0x1ff binaries/meminit.o
                0x0000000000101b90                meminit
                0x0000000000101d1f                setsegs
 .text          0x0000000000101d8f      0x122 binaries/mkbufpool.o
                0x0000000000101d8f                mkbufpool
 .text          0x0000000000101eb1       0x63 binaries/newqueue.o
                0x0000000000101eb1                newqueue
 .text          0x0000000000101f14       0x5c binaries/open.o
                0x0000000000101f14                open
 .text          0x0000000000101f70       0x20 binaries/panic.o
                0x0000000000101f70                panic
 .text          0x0000000000101f90      0x282 binaries/pci.o
                0x0000000000101f90                pci_init
                0x0000000000101f9a                find_pci_device
                0x0000000000102059                pci_read_config_byte
                0x0000000000102097                pci_read_config_word
                0x00000000001020d7                pci_read_config_dword
                0x0000000000102115                pci_write_config_byte
                0x0000000000102151                pci_write_config_word
                0x000000000010218e                pci_write_config_dword
                0x00000000001021ca                pci_get_dev_mmio_base_addr
 .text          0x0000000000102212       0x50 binaries/platinit.o
                0x0000000000102212                platinit
 .text          0x0000000000102262       0xa9 binaries/ptclear.o
                0x0000000000102262                _ptclear
 .text          0x000000000010230b       0x85 binaries/ptcount.o
                0x000000000010230b                ptcount
 .text          0x0000000000102390       0xfe binaries/ptcreate.o
                0x0000000000102390                ptcreate
 .text          0x000000000010248e       0x63 binaries/ptdelete.o
                0x000000000010248e                ptdelete
 .text          0x00000000001024f1       0x91 binaries/ptinit.o
                0x00000000001024f1                ptinit
 .text          0x0000000000102582       0xf5 binaries/ptrecv.o
                0x0000000000102582                ptrecv
 .text          0x0000000000102677       0x66 binaries/ptreset.o
                0x0000000000102677                ptreset
 .text          0x00000000001026dd      0x115 binaries/ptsend.o
                0x00000000001026dd                ptsend
 .text          0x00000000001027f2       0x64 binaries/putc.o
                0x00000000001027f2                putc
 .text          0x0000000000102856       0xb3 binaries/quark_irq.o
                0x0000000000102856                quark_irq_routing
 .text          0x0000000000102909      0x19a binaries/quark_pdat.o
                0x0000000000102909                get_quark_pdat_entry_data_by_id
                0x00000000001029d3                get_quark_pdat_entry_data_by_desc
 .text          0x0000000000102aa3       0xad binaries/queue.o
                0x0000000000102aa3                enqueue
                0x0000000000102b05                dequeue
 .text          0x0000000000102b50       0x5c binaries/read.o
                0x0000000000102b50                read
 .text          0x0000000000102bac       0xde binaries/ready.o
                0x0000000000102bac                ready
 .text          0x0000000000102c8a       0x5e binaries/receive.o
                0x0000000000102c8a                receive
 .text          0x0000000000102ce8       0x4f binaries/recvclr.o
                0x0000000000102ce8                recvclr
 .text          0x0000000000102d37       0xb6 binaries/recvtime.o
                0x0000000000102d37                recvtime
 .text          0x0000000000102ded      0x314 binaries/resched.o
                0x0000000000102ded                normalized_priority
                0x0000000000102e09                resched
                0x000000000010308f                resched_cntl
 .text          0x0000000000103101       0x7c binaries/resume.o
                0x0000000000103101                resume
 .text          0x000000000010317d       0x59 binaries/seek.o
                0x000000000010317d                seek
 .text          0x00000000001031d6       0x51 binaries/semcount.o
                0x00000000001031d6                semcount
 .text          0x0000000000103227       0x93 binaries/semcreate.o
                0x0000000000103227                semcreate
 .text          0x00000000001032ba       0xd1 binaries/semdelete.o
                0x00000000001032ba                semdelete
 .text          0x000000000010338b       0xa8 binaries/semreset.o
                0x000000000010338b                semreset
 .text          0x0000000000103433       0xb0 binaries/send.o
                0x0000000000103433                send
 .text          0x00000000001034e3       0x95 binaries/signal.o
                0x00000000001034e3                signal
 .text          0x0000000000103578       0xc2 binaries/signaln.o
                0x0000000000103578                signaln
 .text          0x000000000010363a       0xbe binaries/sleep.o
                0x000000000010363a                sleepms
                0x00000000001036c2                sleep
 .text          0x00000000001036f8      0x17e binaries/stacktrace.o
                0x00000000001036f8                stacktrace
 .text          0x0000000000103876       0xaa binaries/suspend.o
                0x0000000000103876                suspend
 .text          0x0000000000103920       0x90 binaries/unsleep.o
                0x0000000000103920                unsleep
 .text          0x00000000001039b0       0x19 binaries/userret.o
                0x00000000001039b0                userret
 .text          0x00000000001039c9       0xb1 binaries/wait.o
                0x00000000001039c9                wait
 .text          0x0000000000103a7a       0x71 binaries/wakeup.o
                0x0000000000103a7a                wakeup
 .text          0x0000000000103aeb       0x5c binaries/write.o
                0x0000000000103aeb                write
 .text          0x0000000000103b47       0x1a binaries/xdone.o
                0x0000000000103b47                xdone
 .text          0x0000000000103b61       0x26 binaries/yield.o
                0x0000000000103b61                yield
 .text          0x0000000000103b87       0x20 binaries/app1.o
                0x0000000000103b87                app1
 .text          0x0000000000103ba7       0x72 binaries/app2.o
                0x0000000000103ba7                app2
 .text          0x0000000000103c19       0x57 binaries/app3.o
                0x0000000000103c19                app3
 .text          0x0000000000103c70       0x2c binaries/getppid.o
                0x0000000000103c70                getppid
 .text          0x0000000000103c9c       0x2d binaries/getpstate.o
                0x0000000000103c9c                getpstate
 .text          0x0000000000103cc9       0x2d binaries/mywelcomemsg.o
                0x0000000000103cc9                mywelcomemsg
 .text          0x0000000000103cf6        0xe binaries/host2netlb.o
                0x0000000000103cf6                host2netlb
 .text          0x0000000000103d04       0x23 binaries/host2netlc.o
                0x0000000000103d04                host2netlc
 .text          0x0000000000103d27      0x10a binaries/prntsegaddr.o
                0x0000000000103d27                doit
                0x0000000000103d65                print_size
                0x0000000000103d84                prntsegaddr
 .text          0x0000000000103e31       0xa3 binaries/stackdepth.o
                0x0000000000103e31                stackdepth
 .text          0x0000000000103ed4       0x30 binaries/stacktop.o
                0x0000000000103ed4                stacktop
 .text          0x0000000000103f04       0xa9 binaries/myappA.o
                0x0000000000103f04                myfuncA
                0x0000000000103f20                myappA
 .text          0x0000000000103fad       0x65 binaries/myhacker.o
                0x0000000000103fad                myhacker
 .text          0x0000000000104012       0x80 binaries/myvictim.o
                0x0000000000104012                victim_sleeper
                0x000000000010404c                myvictim
 .text          0x0000000000104092       0x5c binaries/myhackermalware.o
                0x0000000000104092                myhackermalware
 .text          0x00000000001040ee      0x1ac binaries/lab2q3.o
                0x00000000001040ee                q3_prio_fn
                0x0000000000104101                slow_add
                0x000000000010417f                lab2q3t1
                0x0000000000104208                lab2q3t2
 .text          0x000000000010429a      0x165 binaries/cpubound.o
                0x000000000010429a                cpubound
 .text          0x00000000001043ff       0xfe binaries/iobound.o
                0x00000000001043ff                iobound
 .text          0x00000000001044fd      0x20e binaries/lab2q4.o
                0x00000000001044fd                q4_prio_fn
                0x0000000000104514                lab2q4t1
                0x000000000010459d                lab2q4t2
                0x0000000000104639                lab2q4t3
 .text          0x000000000010470b       0xe9 binaries/lab2q5t1.o
                0x000000000010470b                q5_prio_fn
                0x0000000000104733                lab2q5t1
 .text          0x00000000001047f4       0x11 binaries/abs.o
                0x00000000001047f4                abs
 .text          0x0000000000104805       0x84 binaries/atoi.o
                0x0000000000104805                atoi
 .text          0x0000000000104889       0x84 binaries/atol.o
                0x0000000000104889                atol
 .text          0x000000000010490d       0x1a binaries/bzero.o
                0x000000000010490d                bzero
 .text          0x0000000000104927        0x0 binaries/ctype_.o
 .text          0x0000000000104927      0x6bf binaries/doprnt.o
                0x0000000000104a7a                _doprnt
 .text          0x0000000000104fe6      0x5f2 binaries/doscan.o
                0x0000000000104fe6                _doscan
 .text          0x00000000001055d8      0x64e binaries/fdoprnt.o
                0x000000000010565d                _fdoprnt
 .text          0x0000000000105c26       0x1c binaries/fgetc.o
                0x0000000000105c26                fgetc
 .text          0x0000000000105c42       0x61 binaries/fgets.o
                0x0000000000105c42                fgets
 .text          0x0000000000105ca3       0x21 binaries/fprintf.o
                0x0000000000105ca3                fprintf
 .text          0x0000000000105cc4       0x27 binaries/fputc.o
                0x0000000000105cc4                fputc
 .text          0x0000000000105ceb       0x3a binaries/fputs.o
                0x0000000000105ceb                fputs
 .text          0x0000000000105d25       0x6a binaries/fscanf.o
                0x0000000000105d63                fscanf
 .text          0x0000000000105d8f       0x1e binaries/getchar.o
                0x0000000000105d8f                getchar
 .text          0x0000000000105dad       0x11 binaries/labs.o
                0x0000000000105dad                labs
 .text          0x0000000000105dbe       0x36 binaries/memchr.o
                0x0000000000105dbe                memchr
 .text          0x0000000000105df4       0x4a binaries/memcmp.o
                0x0000000000105df4                memcmp
 .text          0x0000000000105e3e       0x26 binaries/memcpy.o
                0x0000000000105e3e                memcpy
 .text          0x0000000000105e64       0x1f binaries/memset.o
                0x0000000000105e64                memset
 .text          0x0000000000105e83       0x2f binaries/printf.o
                0x0000000000105e83                printf
 .text          0x0000000000105eb2       0x21 binaries/putchar.o
                0x0000000000105eb2                putchar
 .text          0x0000000000105ed3      0x1cc binaries/qsort.o
                0x0000000000106077                qsort
 .text          0x000000000010609f       0x4c binaries/rand.o
                0x000000000010609f                srand
                0x00000000001060ac                rand
 .text          0x00000000001060eb       0x48 binaries/sprintf.o
                0x0000000000106104                sprintf
 .text          0x0000000000106133       0x5a binaries/sscanf.o
                0x0000000000106163                sscanf
 .text          0x000000000010618d       0x2f binaries/strchr.o
                0x000000000010618d                strchr
 .text          0x00000000001061bc       0x45 binaries/strcmp.o
                0x00000000001061bc                strcmp
 .text          0x0000000000106201       0x1c binaries/strcpy.o
                0x0000000000106201                strcpy
 .text          0x000000000010621d       0x20 binaries/strlen.o
                0x000000000010621d                strlen
 .text          0x000000000010623d       0x3d binaries/strncat.o
                0x000000000010623d                strncat
 .text          0x000000000010627a       0x3b binaries/strncmp.o
                0x000000000010627a                strncmp
 .text          0x00000000001062b5       0x59 binaries/strncpy.o
                0x00000000001062b5                strncpy
 .text          0x000000000010630e       0x38 binaries/strnlen.o
                0x000000000010630e                strnlen
 .text          0x0000000000106346       0x32 binaries/strrchr.o
                0x0000000000106346                strrchr
 .text          0x0000000000106378       0x68 binaries/strstr.o
                0x0000000000106378                strstr
 .text          0x00000000001063e0      0x112 binaries/ttycontrol.o
                0x00000000001063e0                ttycontrol
 .text          0x00000000001064f2       0xb0 binaries/ttygetc.o
                0x00000000001064f2                ttygetc
 .text          0x00000000001065a2      0x4a3 binaries/ttyhandle_in.o
                0x0000000000106666                ttyhandle_in
 .text          0x0000000000106a45      0x178 binaries/ttyhandle_out.o
                0x0000000000106a45                ttyhandle_out
 .text          0x0000000000106bbd       0x85 binaries/ttyhandler.o
                0x0000000000106bbd                ttyhandler
 .text          0x0000000000106c42      0x15d binaries/ttyinit.o
                0x0000000000106c42                ttyinit
 .text          0x0000000000106d9f        0xf binaries/ttykickout.o
                0x0000000000106d9f                ttykickout
 .text          0x0000000000106dae       0xb2 binaries/ttyputc.o
                0x0000000000106dae                ttyputc
 .text          0x0000000000106e60       0xff binaries/ttyread.o
                0x0000000000106e60                ttyread
 .text          0x0000000000106f5f       0x4d binaries/ttywrite.o
                0x0000000000106f5f                ttywrite
 .text          0x0000000000106fac      0x129 binaries/mount.o
                0x0000000000106fac                namlen
                0x0000000000106fe8                mount
 .text          0x00000000001070d5      0x1c4 binaries/naminit.o
                0x00000000001070d5                naminit
 .text          0x0000000000107299      0x1fe binaries/nammap.o
                0x0000000000107299                namrepl
                0x00000000001073bc                namcpy
                0x000000000010740a                nammap
 .text          0x0000000000107497       0x44 binaries/namopen.o
                0x0000000000107497                namopen
 .text          0x00000000001074db       0xd4 binaries/colon2mac.o
                0x00000000001074db                colon2mac
 .text          0x00000000001075af       0x7d binaries/ethcontrol.o
                0x00000000001075af                ethcontrol
 .text          0x000000000010762c      0x17e binaries/ethhandler.o
                0x000000000010762c                ethhandler
 .text          0x00000000001077aa      0x548 binaries/ethinit.o
                0x00000000001077aa                eth_phy_read
                0x00000000001077ea                eth_phy_write
                0x000000000010782b                eth_phy_reset
                0x0000000000107905                ethinit
 .text          0x0000000000107cf2      0x107 binaries/ethmcast.o
                0x0000000000107cf2                ethmcast_add
                0x0000000000107d3e                ethmcast_remove
 .text          0x0000000000107df9      0x172 binaries/ethread.o
                0x0000000000107df9                ethread
 .text          0x0000000000107f6b       0xc1 binaries/ethwrite.o
                0x0000000000107f6b                ethwrite
 .text          0x000000000010802c       0x68 binaries/rdsbufalloc.o
                0x000000000010802c                rdsbufalloc
 .text          0x0000000000108094       0xd6 binaries/rdsclose.o
                0x0000000000108094                rdsclose
 .text          0x000000000010816a      0x1df binaries/rdscomm.o
                0x000000000010816a                rdscomm
 .text          0x0000000000108349      0x1c4 binaries/rdscontrol.o
                0x0000000000108349                rdscontrol
 .text          0x000000000010850d      0x1f7 binaries/rdsinit.o
                0x000000000010850d                rdsinit
 .text          0x0000000000108704      0x199 binaries/rdsopen.o
                0x0000000000108704                rdsopen
 .text          0x000000000010889d      0x2c5 binaries/rdsprocess.o
                0x000000000010889d                rdsprocess
 .text          0x0000000000108b62      0x1d8 binaries/rdsread.o
                0x0000000000108b62                rdsread
 .text          0x0000000000108d3a      0x1ae binaries/rdswrite.o
                0x0000000000108d3a                rdswrite
 .text          0x0000000000108ee8        0xa binaries/ramclose.o
                0x0000000000108ee8                ramclose
 .text          0x0000000000108ef2       0x35 binaries/raminit.o
                0x0000000000108ef2                raminit
 .text          0x0000000000108f27        0xa binaries/ramopen.o
                0x0000000000108f27                ramopen
 .text          0x0000000000108f31       0x26 binaries/ramread.o
                0x0000000000108f31                ramread
 .text          0x0000000000108f57       0x26 binaries/ramwrite.o
                0x0000000000108f57                ramwrite
 .text          0x0000000000108f7d       0x87 binaries/lfdballoc.o
                0x0000000000108f7d                lfdballoc
 .text          0x0000000000109004       0x49 binaries/lfdbfree.o
                0x0000000000109004                lfdbfree
 .text          0x000000000010904d       0xa1 binaries/lfflush.o
                0x000000000010904d                lfflush
 .text          0x00000000001090ee       0x82 binaries/lfgetmode.o
                0x00000000001090ee                lfgetmode
 .text          0x0000000000109170       0x60 binaries/lfiballoc.o
                0x0000000000109170                lfiballoc
 .text          0x00000000001091d0       0x27 binaries/lfibclear.o
                0x00000000001091d0                lfibclear
 .text          0x00000000001091f7       0x6c binaries/lfibget.o
                0x00000000001091f7                lfibget
 .text          0x0000000000109263       0x88 binaries/lfibput.o
                0x0000000000109263                lfibput
 .text          0x00000000001092eb       0xa4 binaries/lflclose.o
                0x00000000001092eb                lflclose
 .text          0x000000000010938f       0xc2 binaries/lflcontrol.o
                0x000000000010938f                lflcontrol
 .text          0x0000000000109451       0xfd binaries/lflgetc.o
                0x0000000000109451                lflgetc
 .text          0x000000000010954e       0xe7 binaries/lflinit.o
                0x000000000010954e                lflinit
 .text          0x0000000000109635      0x12f binaries/lflputc.o
                0x0000000000109635                lflputc
 .text          0x0000000000109764       0x6b binaries/lflread.o
                0x0000000000109764                lflread
 .text          0x00000000001097cf       0xbd binaries/lflseek.o
                0x00000000001097cf                lflseek
 .text          0x000000000010988c       0x52 binaries/lflwrite.o
                0x000000000010988c                lflwrite
 .text          0x00000000001098de      0x114 binaries/lfsckfmt.o
                0x00000000001098de                lfsckfmt
 .text          0x00000000001099f2      0x1e6 binaries/lfscreate.o
                0x00000000001099f2                lfscreate
 .text          0x0000000000109bd8      0x1b1 binaries/lfsetup.o
                0x0000000000109bd8                lfsetup
 .text          0x0000000000109d89       0x45 binaries/lfsinit.o
                0x0000000000109d89                lfsinit
 .text          0x0000000000109dce      0x302 binaries/lfsopen.o
                0x0000000000109dce                lfsopen
 .text          0x000000000010a0d0      0x112 binaries/lftruncate.o
                0x000000000010a0d0                lftruncate
 .text          0x000000000010a1e2       0x69 binaries/rflclose.o
                0x000000000010a1e2                rflclose
 .text          0x000000000010a24b       0x29 binaries/rflgetc.o
                0x000000000010a24b                rflgetc
 .text          0x000000000010a274       0x6c binaries/rflinit.o
                0x000000000010a274                rflinit
 .text          0x000000000010a2e0       0x29 binaries/rflputc.o
                0x000000000010a2e0                rflputc
 .text          0x000000000010a309      0x2b6 binaries/rflread.o
                0x000000000010a309                rflread
 .text          0x000000000010a5bf       0x68 binaries/rflseek.o
                0x000000000010a5bf                rflseek
 .text          0x000000000010a627      0x2fa binaries/rflwrite.o
                0x000000000010a627                rflwrite
 .text          0x000000000010a921      0x17d binaries/rfscomm.o
                0x000000000010a921                rfscomm
 .text          0x000000000010aa9e      0x22b binaries/rfscontrol.o
                0x000000000010aa9e                rfscontrol
 .text          0x000000000010acc9       0x82 binaries/rfsgetmode.o
                0x000000000010acc9                rfsgetmode
 .text          0x000000000010ad4b       0x7e binaries/rfsinit.o
                0x000000000010ad4b                rfsinit
 .text          0x000000000010adc9       0xad binaries/rfsndmsg.o
                0x000000000010adc9                rfsndmsg
 .text          0x000000000010ae76      0x243 binaries/rfsopen.o
                0x000000000010ae76                rfsopen
 .text          0x000000000010b0b9      0x626 binaries/arp.o
                0x000000000010b0b9                arp_init
                0x000000000010b0d5                arp_alloc
                0x000000000010b17c                arp_ntoh
                0x000000000010b1e9                arp_hton
                0x000000000010b256                arp_resolve
                0x000000000010b4a7                arp_in
 .text          0x000000000010b6df      0x5ed binaries/dhcp.o
                0x000000000010b6df                dhcp_get_opt_val
                0x000000000010b733                dhcp_bld_bootp_msg
                0x000000000010b805                dhcp_bld_disc
                0x000000000010b857                dhcp_bld_req
                0x000000000010b8f2                getlocalip
 .text          0x000000000010bccc       0xda binaries/dot2ip.o
                0x000000000010bccc                dot2ip
 .text          0x000000000010bda6      0x38c binaries/hexdump.o
                0x000000000010bda6                hexdump
                0x000000000010bf00                hexadump
 .text          0x000000000010c132      0x6f6 binaries/icmp.o
                0x000000000010c132                icmp_init
                0x000000000010c14e                icmp_register
                0x000000000010c20c                icmp_recv
                0x000000000010c3af                icmp_mkpkt
                0x000000000010c47c                icmp_in
                0x000000000010c616                icmp_send
                0x000000000010c685                icmp_release
                0x000000000010c7a0                icmp_cksum
                0x000000000010c7fa                icmp_hton
                0x000000000010c811                icmp_ntoh
 .text          0x000000000010c828      0x5e2 binaries/ip.o
                0x000000000010c828                ip_local
                0x000000000010c868                ipcksum
                0x000000000010c8be                ip_ntoh
                0x000000000010c92b                ip_in
                0x000000000010ca50                ip_hton
                0x000000000010cabd                ip_out
                0x000000000010cb73                ip_send
                0x000000000010cc7e                ipout
                0x000000000010cd71                ip_enqueue
 .text          0x000000000010ce0a      0x1b2 binaries/net.o
                0x000000000010ce0a                net_init
                0x000000000010cf01                eth_hton
                0x000000000010cf0e                eth_ntoh
                0x000000000010cf1b                netin
 .text          0x000000000010cfbc       0xb9 binaries/netstart.o
                0x000000000010cfbc                netstart
 .text          0x000000000010d075      0xa30 binaries/pdump.o
                0x000000000010d075                pdump
                0x000000000010d65a                pdumph
 .text          0x000000000010daa5      0x5b8 binaries/tftp.o
                0x000000000010daa5                tftp_send1
                0x000000000010dbb9                tftpget_mb
                0x000000000010e03a                tftpget
 .text          0x000000000010e05d      0xa17 binaries/udp.o
                0x000000000010e05d                udp_init
                0x000000000010e09e                udp_in
                0x000000000010e1c7                udp_register
                0x000000000010e2d8                udp_recv
                0x000000000010e471                udp_recvaddr
                0x000000000010e61e                udp_send
                0x000000000010e7cc                udp_sendto
                0x000000000010e935                udp_release
                0x000000000010ea46                udp_ntoh
                0x000000000010ea5d                udp_hton
 .text          0x000000000010ea74      0x11b binaries/addargs.o
                0x000000000010ea74                addargs
 .text          0x000000000010eb8f      0x1db binaries/lexan.o
                0x000000000010eb8f                lexan
 .text          0x000000000010ed6a      0x643 binaries/shell.o
                0x000000000010ed6a                shell
 .text          0x000000000010f3ad       0x59 binaries/xsh_argecho.o
                0x000000000010f3ad                xsh_argecho
 .text          0x000000000010f406      0x1fb binaries/xsh_arp.o
                0x000000000010f406                xsh_arp
 .text          0x000000000010f601      0x1e1 binaries/xsh_cat.o
                0x000000000010f601                xsh_cat
 .text          0x000000000010f7e2       0x50 binaries/xsh_clear.o
                0x000000000010f7e2                xsh_clear
 .text          0x000000000010f832      0x27d binaries/xsh_date.o
                0x000000000010f832                xsh_date
 .text          0x000000000010faaf       0x81 binaries/xsh_devdump.o
                0x000000000010faaf                xsh_devdump
 .text          0x000000000010fb30       0x63 binaries/xsh_echo.o
                0x000000000010fb30                xsh_echo
 .text          0x000000000010fb93        0xa binaries/xsh_exit.o
                0x000000000010fb93                xsh_exit
 .text          0x000000000010fb9d      0x325 binaries/xsh_help.o
                0x000000000010fb9d                xsh_help
 .text          0x000000000010fec2      0x36b binaries/xsh_ipaddr.o
                0x000000000010fec2                xsh_ipaddr
 .text          0x000000000011022d      0x1b6 binaries/xsh_kill.o
                0x000000000011022d                xsh_kill
 .text          0x00000000001103e3      0x3c3 binaries/xsh_memdump.o
                0x00000000001104a9                xsh_memdump
 .text          0x00000000001107a6      0x1ce binaries/xsh_memstat.o
                0x00000000001107a6                xsh_memstat
 .text          0x0000000000110974      0x287 binaries/xsh_ping.o
                0x0000000000110974                xsh_ping
 .text          0x0000000000110bfb      0x19e binaries/xsh_ps.o
                0x0000000000110bfb                xsh_ps
 .text          0x0000000000110d99      0x1a8 binaries/xsh_sleep.o
                0x0000000000110d99                xsh_sleep
 .text          0x0000000000110f41      0x1c5 binaries/xsh_udpdump.o
                0x0000000000110f41                xsh_udpdump
 .text          0x0000000000111106      0x3b7 binaries/xsh_udpecho.o
                0x0000000000111106                xsh_udpecho
 .text          0x00000000001114bd      0x202 binaries/xsh_udpeserver.o
                0x00000000001114bd                xsh_udpeserver
 .text          0x00000000001116bf      0x1b2 binaries/xsh_uptime.o
                0x00000000001116bf                xsh_uptime
 .text          0x0000000000111871        0xe binaries/clkdisp.o
                0x0000000000111871                clkdisp
 .text          0x000000000011187f       0x19 binaries/ctxsw.o
                0x000000000011187f                ctxsw
 .text          0x0000000000111898      0x36b binaries/intr.o
                0x0000000000111898                disable
                0x00000000001118a1                restore
                0x00000000001118af                enable
                0x00000000001118b1                pause
                0x00000000001118b8                halt
                0x00000000001118be                spurious_irq7
                0x00000000001118c3                spurious_irq15
                0x00000000001118d2                _Xint0
                0x00000000001118dd                _Xint1
                0x00000000001118e8                _Xint2
                0x00000000001118f3                _Xint3
                0x00000000001118fe                _Xint4
                0x0000000000111909                _Xint5
                0x0000000000111914                _Xint6
                0x000000000011191f                _Xint7
                0x000000000011192a                _Xint8
                0x0000000000111935                _Xint9
                0x0000000000111940                _Xint10
                0x000000000011194b                _Xint11
                0x0000000000111959                _Xint12
                0x0000000000111967                _Xint13
                0x0000000000111975                _Xint14
                0x0000000000111983                _Xint15
                0x0000000000111991                _Xint16
                0x000000000011199f                _Xint17
                0x00000000001119ad                _Xint18
                0x00000000001119bb                _Xint19
                0x00000000001119c9                _Xint20
                0x00000000001119d7                _Xint21
                0x00000000001119e5                _Xint22
                0x00000000001119f3                _Xint23
                0x0000000000111a01                _Xint24
                0x0000000000111a0f                _Xint25
                0x0000000000111a1d                _Xint26
                0x0000000000111a2b                _Xint27
                0x0000000000111a39                _Xint28
                0x0000000000111a47                _Xint29
                0x0000000000111a55                _Xint30
                0x0000000000111a63                _Xint31
                0x0000000000111a71                _Xint32
                0x0000000000111a7f                _Xint33
                0x0000000000111a8d                _Xint34
                0x0000000000111a9b                _Xint35
                0x0000000000111aa9                _Xint36
                0x0000000000111ab7                _Xint37
                0x0000000000111ac5                _Xint38
                0x0000000000111ad3                _Xint39
                0x0000000000111ae1                _Xint40
                0x0000000000111aef                _Xint41
                0x0000000000111afd                _Xint42
                0x0000000000111b0b                _Xint43
                0x0000000000111b19                _Xint44
                0x0000000000111b27                _Xint45
                0x0000000000111b35                _Xint46
                0x0000000000111b43                defevec
 .text          0x0000000000111c03        0xa binaries/host2netla.o
                0x0000000000111c03                host2netla
 .text          0x0000000000111c0d        0xf binaries/ttydispatch.o
                0x0000000000111c0d                ttydispatch
 .text          0x0000000000111c1c       0x13 binaries/ethdispatch.o
                0x0000000000111c1c                ethdispatch
 *(.rodata .rodata.*)
 .rodata.str1.1
                0x0000000000111c2f       0x54 binaries/ascdate.o
 *fill*         0x0000000000111c83        0x1 
 .rodata.str1.4
                0x0000000000111c84       0x22 binaries/ascdate.o
 .rodata.str1.1
                0x0000000000111ca6       0x5f binaries/conf.o
 *fill*         0x0000000000111d05        0x3 
 .rodata.str1.4
                0x0000000000111d08       0x4f binaries/early_imr.o
 *fill*         0x0000000000111d57        0x1 
 .rodata        0x0000000000111d58       0x33 binaries/early_imr.o
 .rodata.str1.1
                0x0000000000111d8b      0x20c binaries/evec.o
 *fill*         0x0000000000111f97        0x1 
 .rodata.str1.4
                0x0000000000111f98       0x23 binaries/evec.o
 .rodata.str1.1
                0x0000000000111fbb        0xb binaries/getutime.o
 *fill*         0x0000000000111fc6        0x2 
 .rodata.str1.4
                0x0000000000111fc8       0x54 binaries/getutime.o
 .rodata.str1.1
                0x000000000011201c       0x63 binaries/initialize.o
                                         0x67 (size before relaxing)
 *fill*         0x000000000011207f        0x1 
 .rodata.str1.4
                0x0000000000112080       0xd0 binaries/initialize.o
 .rodata        0x0000000000112150       0x20 binaries/kill.o
 .rodata.str1.4
                0x0000000000112170       0x5a binaries/main.o
 .rodata.str1.1
                0x00000000001121ca        0x6 binaries/main.o
 .rodata.str1.4
                0x00000000001121d0       0x23 binaries/meminit.o
 .rodata.str1.1
                0x00000000001121f3       0x1b binaries/meminit.o
 .rodata.str1.1
                0x000000000011220e        0xf binaries/panic.o
 .rodata.str1.1
                0x000000000011221d       0x1c binaries/ptinit.o
 *fill*         0x0000000000112239        0x3 
 .rodata.str1.4
                0x000000000011223c       0x25 binaries/ptsend.o
 .rodata.str1.1
                0x0000000000112261       0x22 binaries/quark_pdat.o
 *fill*         0x0000000000112283        0x1 
 .rodata.str1.4
                0x0000000000112284       0x2a binaries/ready.o
 *fill*         0x00000000001122ae        0x2 
 .rodata.str1.4
                0x00000000001122b0       0x32 binaries/resched.o
 *fill*         0x00000000001122e2        0x2 
 .rodata.str1.4
                0x00000000001122e4       0x63 binaries/stacktrace.o
 .rodata.str1.1
                0x0000000000112347       0x52 binaries/stacktrace.o
 *fill*         0x0000000000112399        0x3 
 .rodata.str1.4
                0x000000000011239c       0x27 binaries/xdone.o
 .rodata.str1.1
                0x00000000001123c3       0x1d binaries/app1.o
 .rodata.str1.1
                0x00000000001123e0       0x50 binaries/app2.o
 .rodata.str1.1
                0x0000000000112430       0x2f binaries/app3.o
 *fill*         0x000000000011245f        0x1 
 .rodata.str1.4
                0x0000000000112460       0x2b binaries/app3.o
 *fill*         0x000000000011248b        0x1 
 .rodata.str1.4
                0x000000000011248c       0x65 binaries/mywelcomemsg.o
 .rodata.str1.1
                0x00000000001124f1       0x7e binaries/prntsegaddr.o
                                         0x80 (size before relaxing)
 *fill*         0x000000000011256f        0x1 
 .rodata.str1.4
                0x0000000000112570       0xab binaries/stackdepth.o
 .rodata.str1.1
                0x000000000011261b       0x3b binaries/stacktop.o
 .rodata.str1.1
                0x0000000000112656       0x47 binaries/myappA.o
 *fill*         0x000000000011269d        0x3 
 .rodata.str1.4
                0x00000000001126a0       0x47 binaries/myappA.o
 .rodata.str1.1
                0x00000000001126e7       0x36 binaries/myhacker.o
 *fill*         0x000000000011271d        0x3 
 .rodata.str1.4
                0x0000000000112720       0x2d binaries/myhacker.o
 .rodata.str1.1
                0x000000000011274d       0x4e binaries/myvictim.o
 *fill*         0x000000000011279b        0x1 
 .rodata.str1.4
                0x000000000011279c       0x45 binaries/myvictim.o
 *fill*         0x00000000001127e1        0x3 
 .rodata.str1.4
                0x00000000001127e4       0x8a binaries/myhackermalware.o
 *fill*         0x000000000011286e        0x2 
 .rodata.str1.4
                0x0000000000112870      0x127 binaries/lab2q3.o
 .rodata.str1.1
                0x0000000000112997       0x1b binaries/lab2q3.o
 .rodata.str1.1
                0x00000000001129b2       0x1d binaries/cpubound.o
                                         0x1f (size before relaxing)
 *fill*         0x00000000001129cf        0x1 
 .rodata.str1.4
                0x00000000001129d0       0x9e binaries/cpubound.o
 *fill*         0x0000000000112a6e        0x2 
 .rodata.str1.4
                0x0000000000112a70       0x9d binaries/iobound.o
 .rodata.str1.1
                0x0000000000112b0d        0x2 binaries/iobound.o
 *fill*         0x0000000000112b0d        0x3 
 .rodata.str1.4
                0x0000000000112b10       0xc3 binaries/lab2q4.o
                                         0xff (size before relaxing)
 .rodata.str1.1
                0x0000000000112bd3       0x3e binaries/lab2q4.o
                                         0x47 (size before relaxing)
 *fill*         0x0000000000112c11        0x3 
 .rodata.str1.4
                0x0000000000112c14       0x60 binaries/lab2q5t1.o
                                         0x9c (size before relaxing)
 .rodata.str1.1
                0x0000000000112c74       0x24 binaries/lab2q5t1.o
                                         0x2d (size before relaxing)
 .rodata        0x0000000000112c98       0x18 binaries/lab2q5t1.o
 *fill*         0x0000000000112cb0       0x10 
 .rodata        0x0000000000112cc0       0x81 binaries/ctype_.o
                0x0000000000112cc0                _ctype_
 .rodata.str1.1
                0x0000000000112d41       0x29 binaries/doprnt.o
 *fill*         0x0000000000112d6a        0x2 
 .rodata        0x0000000000112d6c       0xc4 binaries/doprnt.o
 .rodata        0x0000000000112e30       0x98 binaries/doscan.o
 .rodata.str1.1
                0x0000000000112ec8       0x29 binaries/fdoprnt.o
 .rodata        0x0000000000112ec8       0x84 binaries/fdoprnt.o
 .rodata        0x0000000000112f4c       0x20 binaries/ttycontrol.o
 .rodata.str1.4
                0x0000000000112f6c       0x4c binaries/naminit.o
 .rodata.str1.1
                0x0000000000112fb8       0x32 binaries/naminit.o
                                         0x35 (size before relaxing)
 .rodata.str1.1
                0x0000000000112fea       0x15 binaries/ethinit.o
 *fill*         0x0000000000112fff        0x1 
 .rodata.str1.4
                0x0000000000113000       0x2e binaries/ethinit.o
 *fill*         0x000000000011302e        0x2 
 .rodata.str1.4
                0x0000000000113030       0x2c binaries/rdsbufalloc.o
 .rodata.str1.4
                0x000000000011305c       0x76 binaries/rdscomm.o
 *fill*         0x00000000001130d2        0x2 
 .rodata.str1.4
                0x00000000001130d4       0x48 binaries/rdscontrol.o
 .rodata.str1.4
                0x000000000011311c       0x7e binaries/rdsinit.o
 .rodata.str1.1
                0x000000000011319a       0x18 binaries/rdsinit.o
 *fill*         0x00000000001131b2        0x2 
 .rodata.str1.4
                0x00000000001131b4       0x22 binaries/rdsopen.o
 *fill*         0x00000000001131d6        0x2 
 .rodata.str1.4
                0x00000000001131d8       0x4d binaries/rdsprocess.o
 .rodata.str1.1
                0x0000000000113225        0x9 binaries/raminit.o
 .rodata.str1.1
                0x000000000011322e       0x13 binaries/lfdballoc.o
 *fill*         0x0000000000113241        0x3 
 .rodata.str1.4
                0x0000000000113244       0x23 binaries/lfdballoc.o
 .rodata.str1.1
                0x0000000000113267       0x14 binaries/lfiballoc.o
 *fill*         0x000000000011327b        0x1 
 .rodata.str1.4
                0x000000000011327c       0x23 binaries/lflcontrol.o
 .rodata.str1.1
                0x000000000011329f       0x64 binaries/lfsckfmt.o
 *fill*         0x0000000000113303        0x1 
 .rodata.str1.4
                0x0000000000113304       0x51 binaries/lfsckfmt.o
 *fill*         0x0000000000113355        0x3 
 .rodata.str1.4
                0x0000000000113358       0x21 binaries/rflread.o
 .rodata.str1.4
                0x0000000000113379       0x21 binaries/rflwrite.o
 *fill*         0x0000000000113379        0x3 
 .rodata.str1.4
                0x000000000011337c       0x75 binaries/rfscomm.o
 *fill*         0x00000000001133f1        0x3 
 .rodata.str1.4
                0x00000000001133f4       0x23 binaries/rfscontrol.o
 *fill*         0x0000000000113417        0x1 
 .rodata        0x0000000000113418       0x18 binaries/rfscontrol.o
 .rodata.str1.1
                0x0000000000113430       0x10 binaries/rfsinit.o
 .rodata.str1.4
                0x0000000000113430       0x57 binaries/rfsinit.o
 *fill*         0x0000000000113487        0x1 
 .rodata.str1.4
                0x0000000000113488       0x2a binaries/rfsndmsg.o
 .rodata.str1.4
                0x00000000001134b2       0x22 binaries/rfsopen.o
 .rodata.str1.1
                0x00000000001134b2       0x19 binaries/arp.o
 *fill*         0x00000000001134cb        0x1 
 .rodata.str1.4
                0x00000000001134cc       0x21 binaries/arp.o
 *fill*         0x00000000001134ed        0x3 
 .rodata.str1.4
                0x00000000001134f0       0xa6 binaries/dhcp.o
 .rodata.str1.1
                0x0000000000113596       0x4a binaries/dhcp.o
 .rodata.str1.1
                0x00000000001135e0       0x5a binaries/hexdump.o
                                         0x61 (size before relaxing)
 *fill*         0x000000000011363a        0x2 
 .rodata.str1.4
                0x000000000011363c       0x67 binaries/hexdump.o
 *fill*         0x00000000001136a3        0x1 
 .rodata.str1.4
                0x00000000001136a4       0x29 binaries/icmp.o
 .rodata.str1.1
                0x00000000001136cd       0x4e binaries/ip.o
 *fill*         0x000000000011371b        0x1 
 .rodata.str1.4
                0x000000000011371c       0x20 binaries/ip.o
 .rodata.str1.4
                0x000000000011373c       0x28 binaries/net.o
 .rodata.str1.1
                0x0000000000113764       0x27 binaries/net.o
 *fill*         0x000000000011378b        0x1 
 .rodata.str1.4
                0x000000000011378c       0xcf binaries/netstart.o
 .rodata.str1.1
                0x000000000011385b      0x141 binaries/pdump.o
                                        0x14b (size before relaxing)
 .rodata.str1.4
                0x000000000011399c      0x126 binaries/pdump.o
 *fill*         0x0000000000113ac2        0x2 
 .rodata.str1.4
                0x0000000000113ac4      0x148 binaries/tftp.o
 .rodata.str1.1
                0x0000000000113c0c        0x6 binaries/tftp.o
                                          0xa (size before relaxing)
 .rodata.str1.1
                0x0000000000113c12       0xe3 binaries/shell.o
                                         0xff (size before relaxing)
 *fill*         0x0000000000113cf5        0x3 
 .rodata.str1.4
                0x0000000000113cf8      0x1c4 binaries/shell.o
 *fill*         0x0000000000113ebc        0x4 
 .rodata        0x0000000000113ec0       0xfc binaries/shell.o
                0x0000000000113ec0                cmdtab
 .rodata.str1.1
                0x0000000000113fbc       0x26 binaries/xsh_argecho.o
                                         0x28 (size before relaxing)
 .rodata.str1.1
                0x0000000000113fe2       0x70 binaries/xsh_arp.o
                                         0x72 (size before relaxing)
 *fill*         0x0000000000114052        0x2 
 .rodata.str1.4
                0x0000000000114054       0xb4 binaries/xsh_arp.o
 .rodata.str1.1
                0x0000000000114108       0x2d binaries/xsh_cat.o
                                         0x4f (size before relaxing)
 *fill*         0x0000000000114135        0x3 
 .rodata.str1.4
                0x0000000000114138       0x52 binaries/xsh_cat.o
                                         0x79 (size before relaxing)
 .rodata.str1.1
                0x000000000011418a       0x15 binaries/xsh_clear.o
 .rodata.str1.1
                0x000000000011419f       0x46 binaries/xsh_date.o
                                         0x5f (size before relaxing)
 *fill*         0x00000000001141e5        0x3 
 .rodata.str1.4
                0x00000000001141e8      0x163 binaries/xsh_date.o
 .rodata.str1.1
                0x000000000011434b       0x5d binaries/xsh_devdump.o
 .rodata.str1.1
                0x00000000001143a8        0x4 binaries/xsh_echo.o
                                          0x9 (size before relaxing)
 .rodata.str1.1
                0x00000000001143ac       0x65 binaries/xsh_help.o
                                         0xa3 (size before relaxing)
 *fill*         0x0000000000114411        0x3 
 .rodata.str1.4
                0x0000000000114414       0x7c binaries/xsh_help.o
                                         0xc6 (size before relaxing)
 .rodata.str1.1
                0x0000000000114490       0x9c binaries/xsh_ipaddr.o
                                         0xf8 (size before relaxing)
 .rodata.str1.4
                0x000000000011452c       0x4d binaries/xsh_ipaddr.o
                                         0x99 (size before relaxing)
 .rodata.str1.1
                0x0000000000114579       0x78 binaries/xsh_kill.o
                                         0x97 (size before relaxing)
 *fill*         0x00000000001145f1        0x3 
 .rodata.str1.4
                0x00000000001145f4       0x4a binaries/xsh_kill.o
                                         0x96 (size before relaxing)
 .rodata.str1.1
                0x000000000011463e       0x84 binaries/xsh_memdump.o
                                         0xa8 (size before relaxing)
 *fill*         0x00000000001146c2        0x2 
 .rodata.str1.4
                0x00000000001146c4      0x15a binaries/xsh_memdump.o
                                        0x1aa (size before relaxing)
 .rodata.str1.1
                0x000000000011481e       0x40 binaries/xsh_memstat.o
                                         0x79 (size before relaxing)
 *fill*         0x000000000011485e        0x2 
 .rodata.str1.4
                0x0000000000114860      0x163 binaries/xsh_memstat.o
                                        0x1af (size before relaxing)
 .rodata.str1.1
                0x00000000001149c3       0x90 binaries/xsh_ping.o
                                         0xaf (size before relaxing)
 *fill*         0x0000000000114a53        0x1 
 .rodata.str1.4
                0x0000000000114a54       0x77 binaries/xsh_ping.o
                                         0xc6 (size before relaxing)
 .rodata.str1.1
                0x0000000000114acb       0x74 binaries/xsh_ps.o
                                         0xd5 (size before relaxing)
 *fill*         0x0000000000114b3f        0x1 
 .rodata.str1.4
                0x0000000000114b40       0x80 binaries/xsh_ps.o
                                         0xd0 (size before relaxing)
 .rodata        0x0000000000114bc0       0x20 binaries/xsh_ps.o
 .rodata.str1.1
                0x0000000000114be0       0x31 binaries/xsh_sleep.o
                                         0x72 (size before relaxing)
 *fill*         0x0000000000114c11        0x3 
 .rodata.str1.4
                0x0000000000114c14       0x2a binaries/xsh_sleep.o
                                         0x7a (size before relaxing)
 .rodata.str1.1
                0x0000000000114c3e       0x6b binaries/xsh_udpdump.o
                                         0xd2 (size before relaxing)
 *fill*         0x0000000000114ca9        0x3 
 .rodata.str1.4
                0x0000000000114cac       0x94 binaries/xsh_udpdump.o
                                         0xe4 (size before relaxing)
 .rodata.str1.1
                0x0000000000114d40       0xdb binaries/xsh_udpecho.o
                                         0xfa (size before relaxing)
 *fill*         0x0000000000114e1b        0x1 
 .rodata.str1.4
                0x0000000000114e1c       0xc7 binaries/xsh_udpecho.o
                                        0x116 (size before relaxing)
 .rodata.str1.1
                0x0000000000114ee3       0x66 binaries/xsh_udpeserver.o
                                         0x8f (size before relaxing)
 *fill*         0x0000000000114f49        0x3 
 .rodata.str1.4
                0x0000000000114f4c       0x29 binaries/xsh_udpeserver.o
                                         0x9f (size before relaxing)
 .rodata.str1.1
                0x0000000000114f75       0x49 binaries/xsh_uptime.o
                                         0x8c (size before relaxing)
 *fill*         0x0000000000114fbe        0x2 
 .rodata.str1.4
                0x0000000000114fc0       0x28 binaries/xsh_uptime.o
                                         0x76 (size before relaxing)
                0x0000000000114fe8                etext = ABSOLUTE (.)
                0x0000000000115000                . = ALIGN (0x1000)
 *fill*         0x0000000000114fe8       0x18 

.eh_frame       0x0000000000115000     0x3418
 .eh_frame      0x0000000000115000       0x48 binaries/ascdate.o
 .eh_frame      0x0000000000115048       0x20 binaries/bufinit.o
                                         0x38 (size before relaxing)
 .eh_frame      0x0000000000115068       0x2c binaries/chprio.o
                                         0x44 (size before relaxing)
 .eh_frame      0x0000000000115094       0x20 binaries/clkhandler.o
                                         0x38 (size before relaxing)
 .eh_frame      0x00000000001150b4       0x20 binaries/clkinit.o
                                         0x38 (size before relaxing)
 .eh_frame      0x00000000001150d4       0x28 binaries/close.o
                                         0x40 (size before relaxing)
 .eh_frame      0x00000000001150fc       0x28 binaries/control.o
                                         0x40 (size before relaxing)
 .eh_frame      0x0000000000115124       0x30 binaries/create.o
                                         0x48 (size before relaxing)
 .eh_frame      0x0000000000115154       0x94 binaries/early_imr.o
                                         0xac (size before relaxing)
 .eh_frame      0x00000000001151e8       0x94 binaries/evec.o
                                         0xac (size before relaxing)
 .eh_frame      0x000000000011527c       0x2c binaries/freebuf.o
                                         0x44 (size before relaxing)
 .eh_frame      0x00000000001152a8       0x2c binaries/freemem.o
                                         0x44 (size before relaxing)
 .eh_frame      0x00000000001152d4       0x2c binaries/getbuf.o
                                         0x44 (size before relaxing)
 .eh_frame      0x0000000000115300       0x28 binaries/getc.o
                                         0x40 (size before relaxing)
 .eh_frame      0x0000000000115328       0x2c binaries/getdev.o
                                         0x44 (size before relaxing)
 .eh_frame      0x0000000000115354       0x64 binaries/getitem.o
                                         0x7c (size before relaxing)
 .eh_frame      0x00000000001153b8       0x28 binaries/getmem.o
                                         0x40 (size before relaxing)
 .eh_frame      0x00000000001153e0       0x20 binaries/getpid.o
                                         0x38 (size before relaxing)
 .eh_frame      0x0000000000115400       0x24 binaries/getprio.o
                                         0x3c (size before relaxing)
 .eh_frame      0x0000000000115424       0x2c binaries/getstk.o
                                         0x44 (size before relaxing)
 .eh_frame      0x0000000000115450       0x20 binaries/gettime.o
                                         0x38 (size before relaxing)
 .eh_frame      0x0000000000115470       0x24 binaries/getutime.o
                                         0x3c (size before relaxing)
 .eh_frame      0x0000000000115494       0x28 binaries/init.o
                                         0x40 (size before relaxing)
 .eh_frame      0x00000000001154bc       0x5c binaries/initialize.o
                                         0x74 (size before relaxing)
 .eh_frame      0x0000000000115518       0x28 binaries/insert.o
                                         0x40 (size before relaxing)
 .eh_frame      0x0000000000115540       0x2c binaries/insertd.o
                                         0x44 (size before relaxing)
 .eh_frame      0x000000000011556c       0x20 binaries/ioerr.o
                                         0x38 (size before relaxing)
 .eh_frame      0x000000000011558c       0x20 binaries/ionull.o
                                         0x38 (size before relaxing)
 .eh_frame      0x00000000001155ac       0x30 binaries/kill.o
                                         0x48 (size before relaxing)
 .eh_frame      0x00000000001155dc       0xa0 binaries/kprintf.o
                                         0xb8 (size before relaxing)
 .eh_frame      0x000000000011567c       0x24 binaries/main.o
                                         0x3c (size before relaxing)
 .eh_frame      0x00000000001156a0       0x44 binaries/mark.o
                                         0x5c (size before relaxing)
 .eh_frame      0x00000000001156e4       0x50 binaries/meminit.o
                                         0x68 (size before relaxing)
 .eh_frame      0x0000000000115734       0x30 binaries/mkbufpool.o
                                         0x48 (size before relaxing)
 .eh_frame      0x0000000000115764       0x20 binaries/newqueue.o
                                         0x38 (size before relaxing)
 .eh_frame      0x0000000000115784       0x28 binaries/open.o
                                         0x40 (size before relaxing)
 .eh_frame      0x00000000001157ac       0x1c binaries/panic.o
                                         0x34 (size before relaxing)
 .eh_frame      0x00000000001157c8      0x12c binaries/pci.o
                                        0x144 (size before relaxing)
 .eh_frame      0x00000000001158f4       0x20 binaries/platinit.o
                                         0x38 (size before relaxing)
 .eh_frame      0x0000000000115914       0x2c binaries/ptclear.o
                                         0x44 (size before relaxing)
 .eh_frame      0x0000000000115940       0x2c binaries/ptcount.o
                                         0x44 (size before relaxing)
 .eh_frame      0x000000000011596c       0x2c binaries/ptcreate.o
                                         0x44 (size before relaxing)
 .eh_frame      0x0000000000115998       0x28 binaries/ptdelete.o
                                         0x40 (size before relaxing)
 .eh_frame      0x00000000001159c0       0x28 binaries/ptinit.o
                                         0x40 (size before relaxing)
 .eh_frame      0x00000000001159e8       0x2c binaries/ptrecv.o
                                         0x44 (size before relaxing)
 .eh_frame      0x0000000000115a14       0x28 binaries/ptreset.o
                                         0x40 (size before relaxing)
 .eh_frame      0x0000000000115a3c       0x30 binaries/ptsend.o
                                         0x48 (size before relaxing)
 .eh_frame      0x0000000000115a6c       0x2c binaries/putc.o
                                         0x44 (size before relaxing)
 .eh_frame      0x0000000000115a98       0x24 binaries/quark_irq.o
                                         0x3c (size before relaxing)
 .eh_frame      0x0000000000115abc       0x54 binaries/quark_pdat.o
                                         0x6c (size before relaxing)
 .eh_frame      0x0000000000115b10       0x40 binaries/queue.o
                                         0x58 (size before relaxing)
 .eh_frame      0x0000000000115b50       0x28 binaries/read.o
                                         0x40 (size before relaxing)
 .eh_frame      0x0000000000115b78       0x28 binaries/ready.o
                                         0x40 (size before relaxing)
 .eh_frame      0x0000000000115ba0       0x2c binaries/receive.o
                                         0x44 (size before relaxing)
 .eh_frame      0x0000000000115bcc       0x24 binaries/recvclr.o
                                         0x3c (size before relaxing)
 .eh_frame      0x0000000000115bf0       0x2c binaries/recvtime.o
                                         0x44 (size before relaxing)
 .eh_frame      0x0000000000115c1c       0x70 binaries/resched.o
                                         0x88 (size before relaxing)
 .eh_frame      0x0000000000115c8c       0x2c binaries/resume.o
                                         0x44 (size before relaxing)
 .eh_frame      0x0000000000115cb8       0x28 binaries/seek.o
                                         0x40 (size before relaxing)
 .eh_frame      0x0000000000115ce0       0x24 binaries/semcount.o
                                         0x3c (size before relaxing)
 .eh_frame      0x0000000000115d04       0x2c binaries/semcreate.o
                                         0x44 (size before relaxing)
 .eh_frame      0x0000000000115d30       0x2c binaries/semdelete.o
                                         0x44 (size before relaxing)
 .eh_frame      0x0000000000115d5c       0x2c binaries/semreset.o
                                         0x44 (size before relaxing)
 .eh_frame      0x0000000000115d88       0x28 binaries/send.o
                                         0x40 (size before relaxing)
 .eh_frame      0x0000000000115db0       0x28 binaries/signal.o
                                         0x40 (size before relaxing)
 .eh_frame      0x0000000000115dd8       0x2c binaries/signaln.o
                                         0x44 (size before relaxing)
 .eh_frame      0x0000000000115e04       0x48 binaries/sleep.o
                                         0x60 (size before relaxing)
 .eh_frame      0x0000000000115e4c       0x30 binaries/stacktrace.o
                                         0x48 (size before relaxing)
 .eh_frame      0x0000000000115e7c       0x28 binaries/suspend.o
                                         0x40 (size before relaxing)
 .eh_frame      0x0000000000115ea4       0x28 binaries/unsleep.o
                                         0x40 (size before relaxing)
 .eh_frame      0x0000000000115ecc       0x20 binaries/userret.o
                                         0x38 (size before relaxing)
 .eh_frame      0x0000000000115eec       0x28 binaries/wait.o
                                         0x40 (size before relaxing)
 .eh_frame      0x0000000000115f14       0x20 binaries/wakeup.o
                                         0x38 (size before relaxing)
 .eh_frame      0x0000000000115f34       0x28 binaries/write.o
                                         0x40 (size before relaxing)
 .eh_frame      0x0000000000115f5c       0x20 binaries/xdone.o
                                         0x38 (size before relaxing)
 .eh_frame      0x0000000000115f7c       0x24 binaries/yield.o
                                         0x3c (size before relaxing)
 .eh_frame      0x0000000000115fa0       0x20 binaries/app1.o
                                         0x38 (size before relaxing)
 .eh_frame      0x0000000000115fc0       0x24 binaries/app2.o
                                         0x3c (size before relaxing)
 .eh_frame      0x0000000000115fe4       0x28 binaries/app3.o
                                         0x40 (size before relaxing)
 .eh_frame      0x000000000011600c       0x24 binaries/getppid.o
                                         0x3c (size before relaxing)
 .eh_frame      0x0000000000116030       0x24 binaries/getpstate.o
                                         0x3c (size before relaxing)
 .eh_frame      0x0000000000116054       0x20 binaries/mywelcomemsg.o
                                         0x38 (size before relaxing)
 .eh_frame      0x0000000000116074       0x20 binaries/host2netlb.o
                                         0x38 (size before relaxing)
 .eh_frame      0x0000000000116094       0x20 binaries/host2netlc.o
                                         0x38 (size before relaxing)
 .eh_frame      0x00000000001160b4       0x68 binaries/prntsegaddr.o
                                         0x80 (size before relaxing)
 .eh_frame      0x000000000011611c       0x2c binaries/stackdepth.o
                                         0x44 (size before relaxing)
 .eh_frame      0x0000000000116148       0x24 binaries/stacktop.o
                                         0x3c (size before relaxing)
 .eh_frame      0x000000000011616c       0x48 binaries/myappA.o
                                         0x60 (size before relaxing)
 .eh_frame      0x00000000001161b4       0x24 binaries/myhacker.o
                                         0x3c (size before relaxing)
 .eh_frame      0x00000000001161d8       0x40 binaries/myvictim.o
                                         0x58 (size before relaxing)
 .eh_frame      0x0000000000116218       0x20 binaries/myhackermalware.o
                                         0x38 (size before relaxing)
 .eh_frame      0x0000000000116238       0x94 binaries/lab2q3.o
                                         0xac (size before relaxing)
 .eh_frame      0x00000000001162cc       0x30 binaries/cpubound.o
                                         0x48 (size before relaxing)
 .eh_frame      0x00000000001162fc       0x2c binaries/iobound.o
                                         0x44 (size before relaxing)
 .eh_frame      0x0000000000116328       0x8c binaries/lab2q4.o
                                         0xa4 (size before relaxing)
 .eh_frame      0x00000000001163b4       0x4c binaries/lab2q5t1.o
                                         0x64 (size before relaxing)
 .eh_frame      0x0000000000116400       0x20 binaries/abs.o
                                         0x38 (size before relaxing)
 .eh_frame      0x0000000000116420       0x28 binaries/atoi.o
                                         0x40 (size before relaxing)
 .eh_frame      0x0000000000116448       0x28 binaries/atol.o
                                         0x40 (size before relaxing)
 .eh_frame      0x0000000000116470       0x20 binaries/bzero.o
                                         0x38 (size before relaxing)
 .eh_frame      0x0000000000116490       0xac binaries/doprnt.o
                                         0xc4 (size before relaxing)
 .eh_frame      0x000000000011653c       0x30 binaries/doscan.o
                                         0x48 (size before relaxing)
 .eh_frame      0x000000000011656c       0x5c binaries/fdoprnt.o
                                         0x74 (size before relaxing)
 .eh_frame      0x00000000001165c8       0x20 binaries/fgetc.o
                                         0x38 (size before relaxing)
 .eh_frame      0x00000000001165e8       0x2c binaries/fgets.o
                                         0x44 (size before relaxing)
 .eh_frame      0x0000000000116614       0x20 binaries/fprintf.o
                                         0x38 (size before relaxing)
 .eh_frame      0x0000000000116634       0x20 binaries/fputc.o
                                         0x38 (size before relaxing)
 .eh_frame      0x0000000000116654       0x28 binaries/fputs.o
                                         0x40 (size before relaxing)
 .eh_frame      0x000000000011667c       0x64 binaries/fscanf.o
                                         0x7c (size before relaxing)
 .eh_frame      0x00000000001166e0       0x20 binaries/getchar.o
                                         0x38 (size before relaxing)
 .eh_frame      0x0000000000116700       0x20 binaries/labs.o
                                         0x38 (size before relaxing)
 .eh_frame      0x0000000000116720       0x20 binaries/memchr.o
                                         0x38 (size before relaxing)
 .eh_frame      0x0000000000116740       0x28 binaries/memcmp.o
                                         0x40 (size before relaxing)
 .eh_frame      0x0000000000116768       0x28 binaries/memcpy.o
                                         0x40 (size before relaxing)
 .eh_frame      0x0000000000116790       0x24 binaries/memset.o
                                         0x3c (size before relaxing)
 .eh_frame      0x00000000001167b4       0x20 binaries/printf.o
                                         0x38 (size before relaxing)
 .eh_frame      0x00000000001167d4       0x20 binaries/putchar.o
                                         0x38 (size before relaxing)
 .eh_frame      0x00000000001167f4       0xa4 binaries/qsort.o
                                         0xbc (size before relaxing)
 .eh_frame      0x0000000000116898       0x40 binaries/rand.o
                                         0x58 (size before relaxing)
 .eh_frame      0x00000000001168d8       0x48 binaries/sprintf.o
                                         0x60 (size before relaxing)
 .eh_frame      0x0000000000116920       0x60 binaries/sscanf.o
                                         0x78 (size before relaxing)
 .eh_frame      0x0000000000116980       0x24 binaries/strchr.o
                                         0x3c (size before relaxing)
 .eh_frame      0x00000000001169a4       0x24 binaries/strcmp.o
                                         0x3c (size before relaxing)
 .eh_frame      0x00000000001169c8       0x20 binaries/strcpy.o
                                         0x38 (size before relaxing)
 .eh_frame      0x00000000001169e8       0x20 binaries/strlen.o
                                         0x38 (size before relaxing)
 .eh_frame      0x0000000000116a08       0x2c binaries/strncat.o
                                         0x44 (size before relaxing)
 .eh_frame      0x0000000000116a34       0x24 binaries/strncmp.o
                                         0x3c (size before relaxing)
 .eh_frame      0x0000000000116a58       0x2c binaries/strncpy.o
                                         0x44 (size before relaxing)
 .eh_frame      0x0000000000116a84       0x24 binaries/strnlen.o
                                         0x3c (size before relaxing)
 .eh_frame      0x0000000000116aa8       0x24 binaries/strrchr.o
                                         0x3c (size before relaxing)
 .eh_frame      0x0000000000116acc       0x2c binaries/strstr.o
                                         0x44 (size before relaxing)
 .eh_frame      0x0000000000116af8       0x30 binaries/ttycontrol.o
                                         0x48 (size before relaxing)
 .eh_frame      0x0000000000116b28       0x2c binaries/ttygetc.o
                                         0x44 (size before relaxing)
 .eh_frame      0x0000000000116b54       0x84 binaries/ttyhandle_in.o
                                         0x9c (size before relaxing)
 .eh_frame      0x0000000000116bd8       0x30 binaries/ttyhandle_out.o
                                         0x48 (size before relaxing)
 .eh_frame      0x0000000000116c08       0x28 binaries/ttyhandler.o
                                         0x40 (size before relaxing)
 .eh_frame      0x0000000000116c30       0x30 binaries/ttyinit.o
                                         0x48 (size before relaxing)
 .eh_frame      0x0000000000116c60       0x20 binaries/ttykickout.o
                                         0x38 (size before relaxing)
 .eh_frame      0x0000000000116c80       0x2c binaries/ttyputc.o
                                         0x44 (size before relaxing)
 .eh_frame      0x0000000000116cac       0x2c binaries/ttyread.o
                                         0x44 (size before relaxing)
 .eh_frame      0x0000000000116cd8       0x2c binaries/ttywrite.o
                                         0x44 (size before relaxing)
 .eh_frame      0x0000000000116d04       0x4c binaries/mount.o
                                         0x64 (size before relaxing)
 .eh_frame      0x0000000000116d50       0x30 binaries/naminit.o
                                         0x48 (size before relaxing)
 .eh_frame      0x0000000000116d80       0x84 binaries/nammap.o
                                         0x9c (size before relaxing)
 .eh_frame      0x0000000000116e04       0x20 binaries/namopen.o
                                         0x38 (size before relaxing)
 .eh_frame      0x0000000000116e24       0x2c binaries/colon2mac.o
                                         0x44 (size before relaxing)
 .eh_frame      0x0000000000116e50       0x20 binaries/ethcontrol.o
                                         0x38 (size before relaxing)
 .eh_frame      0x0000000000116e70       0x30 binaries/ethhandler.o
                                         0x48 (size before relaxing)
 .eh_frame      0x0000000000116ea0       0x98 binaries/ethinit.o
                                         0xb0 (size before relaxing)
 .eh_frame      0x0000000000116f38       0x54 binaries/ethmcast.o
                                         0x6c (size before relaxing)
 .eh_frame      0x0000000000116f8c       0x30 binaries/ethread.o
                                         0x48 (size before relaxing)
 .eh_frame      0x0000000000116fbc       0x2c binaries/ethwrite.o
                                         0x44 (size before relaxing)
 .eh_frame      0x0000000000116fe8       0x24 binaries/rdsbufalloc.o
                                         0x3c (size before relaxing)
 .eh_frame      0x000000000011700c       0x2c binaries/rdsclose.o
                                         0x44 (size before relaxing)
 .eh_frame      0x0000000000117038       0x30 binaries/rdscomm.o
                                         0x48 (size before relaxing)
 .eh_frame      0x0000000000117068       0x30 binaries/rdscontrol.o
                                         0x48 (size before relaxing)
 .eh_frame      0x0000000000117098       0x30 binaries/rdsinit.o
                                         0x48 (size before relaxing)
 .eh_frame      0x00000000001170c8       0x30 binaries/rdsopen.o
                                         0x48 (size before relaxing)
 .eh_frame      0x00000000001170f8       0x20 binaries/rdsprocess.o
                                         0x38 (size before relaxing)
 .eh_frame      0x0000000000117118       0x30 binaries/rdsread.o
                                         0x48 (size before relaxing)
 .eh_frame      0x0000000000117148       0x30 binaries/rdswrite.o
                                         0x48 (size before relaxing)
 .eh_frame      0x0000000000117178       0x20 binaries/ramclose.o
                                         0x38 (size before relaxing)
 .eh_frame      0x0000000000117198       0x20 binaries/raminit.o
                                         0x38 (size before relaxing)
 .eh_frame      0x00000000001171b8       0x20 binaries/ramopen.o
                                         0x38 (size before relaxing)
 .eh_frame      0x00000000001171d8       0x20 binaries/ramread.o
                                         0x38 (size before relaxing)
 .eh_frame      0x00000000001171f8       0x20 binaries/ramwrite.o
                                         0x38 (size before relaxing)
 .eh_frame      0x0000000000117218       0x28 binaries/lfdballoc.o
                                         0x40 (size before relaxing)
 .eh_frame      0x0000000000117240       0x24 binaries/lfdbfree.o
                                         0x3c (size before relaxing)
 .eh_frame      0x0000000000117264       0x24 binaries/lfflush.o
                                         0x3c (size before relaxing)
 .eh_frame      0x0000000000117288       0x20 binaries/lfgetmode.o
                                         0x38 (size before relaxing)
 .eh_frame      0x00000000001172a8       0x24 binaries/lfiballoc.o
                                         0x3c (size before relaxing)
 .eh_frame      0x00000000001172cc       0x20 binaries/lfibclear.o
                                         0x38 (size before relaxing)
 .eh_frame      0x00000000001172ec       0x2c binaries/lfibget.o
                                         0x44 (size before relaxing)
 .eh_frame      0x0000000000117318       0x2c binaries/lfibput.o
                                         0x44 (size before relaxing)
 .eh_frame      0x0000000000117344       0x28 binaries/lflclose.o
                                         0x40 (size before relaxing)
 .eh_frame      0x000000000011736c       0x2c binaries/lflcontrol.o
                                         0x44 (size before relaxing)
 .eh_frame      0x0000000000117398       0x2c binaries/lflgetc.o
                                         0x44 (size before relaxing)
 .eh_frame      0x00000000001173c4       0x2c binaries/lflinit.o
                                         0x44 (size before relaxing)
 .eh_frame      0x00000000001173f0       0x30 binaries/lflputc.o
                                         0x48 (size before relaxing)
 .eh_frame      0x0000000000117420       0x2c binaries/lflread.o
                                         0x44 (size before relaxing)
 .eh_frame      0x000000000011744c       0x2c binaries/lflseek.o
                                         0x44 (size before relaxing)
 .eh_frame      0x0000000000117478       0x2c binaries/lflwrite.o
                                         0x44 (size before relaxing)
 .eh_frame      0x00000000001174a4       0x30 binaries/lfsckfmt.o
                                         0x48 (size before relaxing)
 .eh_frame      0x00000000001174d4       0x30 binaries/lfscreate.o
                                         0x48 (size before relaxing)
 .eh_frame      0x0000000000117504       0x30 binaries/lfsetup.o
                                         0x48 (size before relaxing)
 .eh_frame      0x0000000000117534       0x20 binaries/lfsinit.o
                                         0x38 (size before relaxing)
 .eh_frame      0x0000000000117554       0x30 binaries/lfsopen.o
                                         0x48 (size before relaxing)
 .eh_frame      0x0000000000117584       0x30 binaries/lftruncate.o
                                         0x48 (size before relaxing)
 .eh_frame      0x00000000001175b4       0x20 binaries/rflclose.o
                                         0x38 (size before relaxing)
 .eh_frame      0x00000000001175d4       0x20 binaries/rflgetc.o
                                         0x38 (size before relaxing)
 .eh_frame      0x00000000001175f4       0x24 binaries/rflinit.o
                                         0x3c (size before relaxing)
 .eh_frame      0x0000000000117618       0x20 binaries/rflputc.o
                                         0x38 (size before relaxing)
 .eh_frame      0x0000000000117638       0x30 binaries/rflread.o
                                         0x48 (size before relaxing)
 .eh_frame      0x0000000000117668       0x20 binaries/rflseek.o
                                         0x38 (size before relaxing)
 .eh_frame      0x0000000000117688       0x30 binaries/rflwrite.o
                                         0x48 (size before relaxing)
 .eh_frame      0x00000000001176b8       0x30 binaries/rfscomm.o
                                         0x48 (size before relaxing)
 .eh_frame      0x00000000001176e8       0x2c binaries/rfscontrol.o
                                         0x44 (size before relaxing)
 .eh_frame      0x0000000000117714       0x20 binaries/rfsgetmode.o
                                         0x38 (size before relaxing)
 .eh_frame      0x0000000000117734       0x20 binaries/rfsinit.o
                                         0x38 (size before relaxing)
 .eh_frame      0x0000000000117754       0x20 binaries/rfsndmsg.o
                                         0x38 (size before relaxing)
 .eh_frame      0x0000000000117774       0x2c binaries/rfsopen.o
                                         0x44 (size before relaxing)
 .eh_frame      0x00000000001177a0       0xec binaries/arp.o
                                        0x104 (size before relaxing)
 .eh_frame      0x000000000011788c       0xd0 binaries/dhcp.o
                                         0xe8 (size before relaxing)
 .eh_frame      0x000000000011795c       0x2c binaries/dot2ip.o
                                         0x44 (size before relaxing)
 .eh_frame      0x0000000000117988       0x60 binaries/hexdump.o
                                         0x78 (size before relaxing)
 .eh_frame      0x00000000001179e8      0x198 binaries/icmp.o
                                        0x1b0 (size before relaxing)
 .eh_frame      0x0000000000117b80      0x148 binaries/ip.o
                                        0x160 (size before relaxing)
 .eh_frame      0x0000000000117cc8       0x7c binaries/net.o
                                         0x94 (size before relaxing)
 .eh_frame      0x0000000000117d44       0x24 binaries/netstart.o
                                         0x3c (size before relaxing)
 .eh_frame      0x0000000000117d68       0x50 binaries/pdump.o
                                         0x68 (size before relaxing)
 .eh_frame      0x0000000000117db8       0x80 binaries/tftp.o
                                         0x98 (size before relaxing)
 .eh_frame      0x0000000000117e38      0x1b0 binaries/udp.o
                                        0x1c8 (size before relaxing)
 .eh_frame      0x0000000000117fe8       0x30 binaries/addargs.o
                                         0x48 (size before relaxing)
 .eh_frame      0x0000000000118018       0x30 binaries/lexan.o
                                         0x48 (size before relaxing)
 .eh_frame      0x0000000000118048       0x30 binaries/shell.o
                                         0x48 (size before relaxing)
 .eh_frame      0x0000000000118078       0x2c binaries/xsh_argecho.o
                                         0x44 (size before relaxing)
 .eh_frame      0x00000000001180a4       0x30 binaries/xsh_arp.o
                                         0x48 (size before relaxing)
 .eh_frame      0x00000000001180d4       0x30 binaries/xsh_cat.o
                                         0x48 (size before relaxing)
 .eh_frame      0x0000000000118104       0x20 binaries/xsh_clear.o
                                         0x38 (size before relaxing)
 .eh_frame      0x0000000000118124       0x24 binaries/xsh_date.o
                                         0x3c (size before relaxing)
 .eh_frame      0x0000000000118148       0x28 binaries/xsh_devdump.o
                                         0x40 (size before relaxing)
 .eh_frame      0x0000000000118170       0x2c binaries/xsh_echo.o
                                         0x44 (size before relaxing)
 .eh_frame      0x000000000011819c       0x20 binaries/xsh_exit.o
                                         0x38 (size before relaxing)
 .eh_frame      0x00000000001181bc       0x30 binaries/xsh_help.o
                                         0x48 (size before relaxing)
 .eh_frame      0x00000000001181ec       0x2c binaries/xsh_ipaddr.o
                                         0x44 (size before relaxing)
 .eh_frame      0x0000000000118218       0x2c binaries/xsh_kill.o
                                         0x44 (size before relaxing)
 .eh_frame      0x0000000000118244       0x58 binaries/xsh_memdump.o
                                         0x70 (size before relaxing)
 .eh_frame      0x000000000011829c       0x30 binaries/xsh_memstat.o
                                         0x48 (size before relaxing)
 .eh_frame      0x00000000001182cc       0x30 binaries/xsh_ping.o
                                         0x48 (size before relaxing)
 .eh_frame      0x00000000001182fc       0x30 binaries/xsh_ps.o
                                         0x48 (size before relaxing)
 .eh_frame      0x000000000011832c       0x30 binaries/xsh_sleep.o
                                         0x48 (size before relaxing)
 .eh_frame      0x000000000011835c       0x2c binaries/xsh_udpdump.o
                                         0x44 (size before relaxing)
 .eh_frame      0x0000000000118388       0x30 binaries/xsh_udpecho.o
                                         0x48 (size before relaxing)
 .eh_frame      0x00000000001183b8       0x30 binaries/xsh_udpeserver.o
                                         0x48 (size before relaxing)
 .eh_frame      0x00000000001183e8       0x30 binaries/xsh_uptime.o
                                         0x48 (size before relaxing)

.iplt           0x0000000000118420        0x0
 .iplt          0x0000000000118420        0x0 binaries/start.o

.rel.dyn        0x0000000000118418        0x0
 .rel.iplt      0x0000000000118418        0x0 binaries/start.o
 .rel.text      0x0000000000118418        0x0 binaries/start.o
 .rel.data      0x0000000000118418        0x0 binaries/start.o
 .rel.rodata    0x0000000000118418        0x0 binaries/start.o

.data           0x0000000000118420     0x1be0
                0x0000000000118420                data = ABSOLUTE (.)
 *(.data .data.*)
 .data          0x0000000000118420      0x85a binaries/start.o
                0x0000000000118420                gdt
                0x0000000000118470                idt
                0x0000000000118c76                cpudelay
 *fill*         0x0000000000118c7a        0x6 
 .data          0x0000000000118c80       0x88 binaries/ascdate.o
                0x0000000000118c80                Date
 .data          0x0000000000118d08        0x0 binaries/bufinit.o
 .data          0x0000000000118d08        0x0 binaries/chprio.o
 .data          0x0000000000118d08        0x4 binaries/clkhandler.o
 .data          0x0000000000118d0c        0x0 binaries/clkinit.o
 .data          0x0000000000118d0c        0x0 binaries/close.o
 *fill*         0x0000000000118d0c       0x14 
 .data          0x0000000000118d20      0x30c binaries/conf.o
                0x0000000000118d20                devtab
 .data          0x000000000011902c        0x0 binaries/control.o
 .data          0x000000000011902c        0x4 binaries/create.o
 .data          0x0000000000119030        0x0 binaries/early_imr.o
 *fill*         0x0000000000119030       0x10 
 .data          0x0000000000119040       0x40 binaries/evec.o
                0x0000000000119040                inames
 .data          0x0000000000119080        0x0 binaries/freebuf.o
 .data          0x0000000000119080        0x0 binaries/freemem.o
 .data          0x0000000000119080        0x0 binaries/getbuf.o
 .data          0x0000000000119080        0x0 binaries/getc.o
 .data          0x0000000000119080        0x0 binaries/getdev.o
 .data          0x0000000000119080        0x0 binaries/getitem.o
 .data          0x0000000000119080        0x0 binaries/getmem.o
 .data          0x0000000000119080        0x0 binaries/getpid.o
 .data          0x0000000000119080        0x0 binaries/getprio.o
 .data          0x0000000000119080        0x0 binaries/getstk.o
 .data          0x0000000000119080        0x0 binaries/gettime.o
 .data          0x0000000000119080        0x0 binaries/getutime.o
 .data          0x0000000000119080        0x0 binaries/init.o
 .data          0x0000000000119080        0x0 binaries/initialize.o
 .data          0x0000000000119080        0x0 binaries/insert.o
 .data          0x0000000000119080        0x0 binaries/insertd.o
 .data          0x0000000000119080        0x0 binaries/ioerr.o
 .data          0x0000000000119080        0x0 binaries/ionull.o
 .data          0x0000000000119080        0x0 binaries/kill.o
 .data          0x0000000000119080        0x0 binaries/kprintf.o
 .data          0x0000000000119080        0x8 binaries/main.o
                0x0000000000119080                lab2flag
                0x0000000000119084                printflag
 .data          0x0000000000119088        0x0 binaries/mark.o
 *fill*         0x0000000000119088       0x18 
 .data          0x00000000001190a0       0x48 binaries/meminit.o
                0x00000000001190a0                gdt_copy
                0x00000000001190e0                bootinfo
                0x00000000001190e4                bootsign
 .data          0x00000000001190e8        0x0 binaries/mkbufpool.o
 .data          0x00000000001190e8        0x2 binaries/newqueue.o
 .data          0x00000000001190ea        0x0 binaries/open.o
 .data          0x00000000001190ea        0x0 binaries/panic.o
 .data          0x00000000001190ea        0x0 binaries/pci.o
 .data          0x00000000001190ea        0x0 binaries/platinit.o
 .data          0x00000000001190ea        0x0 binaries/ptclear.o
 .data          0x00000000001190ea        0x0 binaries/ptcount.o
 .data          0x00000000001190ea        0x0 binaries/ptcreate.o
 .data          0x00000000001190ea        0x0 binaries/ptdelete.o
 .data          0x00000000001190ea        0x0 binaries/ptinit.o
 .data          0x00000000001190ea        0x0 binaries/ptrecv.o
 .data          0x00000000001190ea        0x0 binaries/ptreset.o
 .data          0x00000000001190ea        0x0 binaries/ptsend.o
 .data          0x00000000001190ea        0x0 binaries/putc.o
 .data          0x00000000001190ea        0x0 binaries/quark_irq.o
 .data          0x00000000001190ea        0x0 binaries/quark_pdat.o
 .data          0x00000000001190ea        0x0 binaries/queue.o
 .data          0x00000000001190ea        0x0 binaries/read.o
 .data          0x00000000001190ea        0x0 binaries/ready.o
 .data          0x00000000001190ea        0x0 binaries/receive.o
 .data          0x00000000001190ea        0x0 binaries/recvclr.o
 .data          0x00000000001190ea        0x0 binaries/recvtime.o
 .data          0x00000000001190ea        0x0 binaries/resched.o
 .data          0x00000000001190ea        0x0 binaries/resume.o
 .data          0x00000000001190ea        0x0 binaries/seek.o
 .data          0x00000000001190ea        0x0 binaries/semcount.o
 .data          0x00000000001190ea        0x0 binaries/semcreate.o
 .data          0x00000000001190ea        0x0 binaries/semdelete.o
 .data          0x00000000001190ea        0x0 binaries/semreset.o
 .data          0x00000000001190ea        0x0 binaries/send.o
 .data          0x00000000001190ea        0x0 binaries/signal.o
 .data          0x00000000001190ea        0x0 binaries/signaln.o
 .data          0x00000000001190ea        0x0 binaries/sleep.o
 .data          0x00000000001190ea        0x0 binaries/stacktrace.o
 .data          0x00000000001190ea        0x0 binaries/suspend.o
 .data          0x00000000001190ea        0x0 binaries/unsleep.o
 .data          0x00000000001190ea        0x0 binaries/userret.o
 .data          0x00000000001190ea        0x0 binaries/wait.o
 .data          0x00000000001190ea        0x0 binaries/wakeup.o
 .data          0x00000000001190ea        0x0 binaries/write.o
 .data          0x00000000001190ea        0x0 binaries/xdone.o
 .data          0x00000000001190ea        0x0 binaries/yield.o
 .data          0x00000000001190ea        0x0 binaries/app1.o
 .data          0x00000000001190ea        0x0 binaries/app2.o
 .data          0x00000000001190ea        0x0 binaries/app3.o
 .data          0x00000000001190ea        0x0 binaries/getppid.o
 .data          0x00000000001190ea        0x0 binaries/getpstate.o
 .data          0x00000000001190ea        0x0 binaries/mywelcomemsg.o
 .data          0x00000000001190ea        0x0 binaries/host2netlb.o
 .data          0x00000000001190ea        0x0 binaries/host2netlc.o
 .data          0x00000000001190ea        0x0 binaries/prntsegaddr.o
 .data          0x00000000001190ea        0x0 binaries/stackdepth.o
 .data          0x00000000001190ea        0x0 binaries/stacktop.o
 .data          0x00000000001190ea        0x0 binaries/myappA.o
 .data          0x00000000001190ea        0x0 binaries/myhacker.o
 .data          0x00000000001190ea        0x0 binaries/myvictim.o
 .data          0x00000000001190ea        0x0 binaries/myhackermalware.o
 .data          0x00000000001190ea        0x0 binaries/lab2q3.o
 .data          0x00000000001190ea        0x0 binaries/cpubound.o
 .data          0x00000000001190ea        0x0 binaries/iobound.o
 .data          0x00000000001190ea        0x0 binaries/lab2q4.o
 .data          0x00000000001190ea        0x0 binaries/lab2q5t1.o
 .data          0x00000000001190ea        0x0 binaries/abs.o
 .data          0x00000000001190ea        0x0 binaries/atoi.o
 .data          0x00000000001190ea        0x0 binaries/atol.o
 .data          0x00000000001190ea        0x0 binaries/bzero.o
 .data          0x00000000001190ea        0x0 binaries/ctype_.o
 .data          0x00000000001190ea        0x0 binaries/doprnt.o
 *fill*         0x00000000001190ea       0x16 
 .data          0x0000000000119100       0x80 binaries/doscan.o
                0x0000000000119100                _sctab
 .data          0x0000000000119180        0x0 binaries/fdoprnt.o
 .data          0x0000000000119180        0x0 binaries/fgetc.o
 .data          0x0000000000119180        0x0 binaries/fgets.o
 .data          0x0000000000119180        0x0 binaries/fprintf.o
 .data          0x0000000000119180        0x0 binaries/fputc.o
 .data          0x0000000000119180        0x0 binaries/fputs.o
 .data          0x0000000000119180        0x0 binaries/fscanf.o
 .data          0x0000000000119180        0x0 binaries/getchar.o
 .data          0x0000000000119180        0x0 binaries/labs.o
 .data          0x0000000000119180        0x0 binaries/memchr.o
 .data          0x0000000000119180        0x0 binaries/memcmp.o
 .data          0x0000000000119180        0x0 binaries/memcpy.o
 .data          0x0000000000119180        0x0 binaries/memset.o
 .data          0x0000000000119180        0x0 binaries/printf.o
 .data          0x0000000000119180        0x0 binaries/putchar.o
 .data          0x0000000000119180        0x0 binaries/qsort.o
 .data          0x0000000000119180        0x4 binaries/rand.o
 .data          0x0000000000119184        0x0 binaries/sprintf.o
 .data          0x0000000000119184        0x0 binaries/sscanf.o
 .data          0x0000000000119184        0x0 binaries/strchr.o
 .data          0x0000000000119184        0x0 binaries/strcmp.o
 .data          0x0000000000119184        0x0 binaries/strcpy.o
 .data          0x0000000000119184        0x0 binaries/strlen.o
 .data          0x0000000000119184        0x0 binaries/strncat.o
 .data          0x0000000000119184        0x0 binaries/strncmp.o
 .data          0x0000000000119184        0x0 binaries/strncpy.o
 .data          0x0000000000119184        0x0 binaries/strnlen.o
 .data          0x0000000000119184        0x0 binaries/strrchr.o
 .data          0x0000000000119184        0x0 binaries/strstr.o
 .data          0x0000000000119184        0x0 binaries/ttycontrol.o
 .data          0x0000000000119184        0x0 binaries/ttygetc.o
 .data          0x0000000000119184        0x0 binaries/ttyhandle_in.o
 .data          0x0000000000119184        0x0 binaries/ttyhandle_out.o
 .data          0x0000000000119184        0x0 binaries/ttyhandler.o
 .data          0x0000000000119184        0x0 binaries/ttyinit.o
 .data          0x0000000000119184        0x0 binaries/ttykickout.o
 .data          0x0000000000119184        0x0 binaries/ttyputc.o
 .data          0x0000000000119184        0x0 binaries/ttyread.o
 .data          0x0000000000119184        0x0 binaries/ttywrite.o
 .data          0x0000000000119184        0x0 binaries/mount.o
 .data          0x0000000000119184        0x0 binaries/naminit.o
 .data          0x0000000000119184        0x0 binaries/nammap.o
 .data          0x0000000000119184        0x0 binaries/namopen.o
 .data          0x0000000000119184        0x0 binaries/colon2mac.o
 .data          0x0000000000119184        0x0 binaries/ethcontrol.o
 .data          0x0000000000119184        0x0 binaries/ethhandler.o
 .data          0x0000000000119184        0x0 binaries/ethinit.o
 .data          0x0000000000119184        0x0 binaries/ethmcast.o
 .data          0x0000000000119184        0x0 binaries/ethread.o
 .data          0x0000000000119184        0x0 binaries/ethwrite.o
 .data          0x0000000000119184        0x0 binaries/rdsbufalloc.o
 .data          0x0000000000119184        0x0 binaries/rdsclose.o
 .data          0x0000000000119184        0x0 binaries/rdscomm.o
 .data          0x0000000000119184        0x0 binaries/rdscontrol.o
 .data          0x0000000000119184        0x0 binaries/rdsinit.o
 .data          0x0000000000119184        0x0 binaries/rdsopen.o
 .data          0x0000000000119184        0x0 binaries/rdsprocess.o
 .data          0x0000000000119184        0x0 binaries/rdsread.o
 .data          0x0000000000119184        0x0 binaries/rdswrite.o
 .data          0x0000000000119184        0x0 binaries/ramclose.o
 .data          0x0000000000119184        0x0 binaries/raminit.o
 .data          0x0000000000119184        0x0 binaries/ramopen.o
 .data          0x0000000000119184        0x0 binaries/ramread.o
 .data          0x0000000000119184        0x0 binaries/ramwrite.o
 .data          0x0000000000119184        0x0 binaries/lfdballoc.o
 .data          0x0000000000119184        0x0 binaries/lfdbfree.o
 .data          0x0000000000119184        0x0 binaries/lfflush.o
 .data          0x0000000000119184        0x0 binaries/lfgetmode.o
 .data          0x0000000000119184        0x0 binaries/lfiballoc.o
 .data          0x0000000000119184        0x0 binaries/lfibclear.o
 .data          0x0000000000119184        0x0 binaries/lfibget.o
 .data          0x0000000000119184        0x0 binaries/lfibput.o
 .data          0x0000000000119184        0x0 binaries/lflclose.o
 .data          0x0000000000119184        0x0 binaries/lflcontrol.o
 .data          0x0000000000119184        0x0 binaries/lflgetc.o
 .data          0x0000000000119184        0x0 binaries/lflinit.o
 .data          0x0000000000119184        0x0 binaries/lflputc.o
 .data          0x0000000000119184        0x0 binaries/lflread.o
 .data          0x0000000000119184        0x0 binaries/lflseek.o
 .data          0x0000000000119184        0x0 binaries/lflwrite.o
 .data          0x0000000000119184        0x0 binaries/lfsckfmt.o
 .data          0x0000000000119184        0x0 binaries/lfscreate.o
 .data          0x0000000000119184        0x0 binaries/lfsetup.o
 .data          0x0000000000119184        0x0 binaries/lfsinit.o
 .data          0x0000000000119184        0x0 binaries/lfsopen.o
 .data          0x0000000000119184        0x0 binaries/lftruncate.o
 .data          0x0000000000119184        0x0 binaries/rflclose.o
 .data          0x0000000000119184        0x0 binaries/rflgetc.o
 .data          0x0000000000119184        0x0 binaries/rflinit.o
 .data          0x0000000000119184        0x0 binaries/rflputc.o
 .data          0x0000000000119184        0x0 binaries/rflread.o
 .data          0x0000000000119184        0x0 binaries/rflseek.o
 .data          0x0000000000119184        0x0 binaries/rflwrite.o
 .data          0x0000000000119184        0x0 binaries/rfscomm.o
 .data          0x0000000000119184        0x0 binaries/rfscontrol.o
 .data          0x0000000000119184        0x0 binaries/rfsgetmode.o
 .data          0x0000000000119184        0x0 binaries/rfsinit.o
 .data          0x0000000000119184        0x0 binaries/rfsndmsg.o
 .data          0x0000000000119184        0x0 binaries/rfsopen.o
 .data          0x0000000000119184        0x0 binaries/arp.o
 .data          0x0000000000119184        0x0 binaries/dhcp.o
 .data          0x0000000000119184        0x0 binaries/dot2ip.o
 .data          0x0000000000119184        0x0 binaries/hexdump.o
 .data          0x0000000000119184        0x4 binaries/icmp.o
 .data          0x0000000000119188        0x0 binaries/ip.o
 .data          0x0000000000119188        0x0 binaries/net.o
 .data          0x0000000000119188        0x0 binaries/netstart.o
 .data          0x0000000000119188        0x0 binaries/pdump.o
 .data          0x0000000000119188        0x0 binaries/tftp.o
 .data          0x0000000000119188        0x4 binaries/udp.o
 .data          0x000000000011918c        0x0 binaries/addargs.o
 .data          0x000000000011918c        0x0 binaries/lexan.o
 .data          0x000000000011918c        0x4 binaries/shell.o
                0x000000000011918c                ncmd
 .data          0x0000000000119190        0x0 binaries/xsh_argecho.o
 .data          0x0000000000119190        0x0 binaries/xsh_arp.o
 .data          0x0000000000119190        0x0 binaries/xsh_cat.o
 .data          0x0000000000119190        0x0 binaries/xsh_clear.o
 .data          0x0000000000119190        0x0 binaries/xsh_date.o
 .data          0x0000000000119190        0x0 binaries/xsh_devdump.o
 .data          0x0000000000119190        0x0 binaries/xsh_echo.o
 .data          0x0000000000119190        0x0 binaries/xsh_exit.o
 .data          0x0000000000119190        0x0 binaries/xsh_help.o
 .data          0x0000000000119190        0x0 binaries/xsh_ipaddr.o
 .data          0x0000000000119190        0x0 binaries/xsh_kill.o
 .data          0x0000000000119190        0x0 binaries/xsh_memdump.o
 .data          0x0000000000119190        0x0 binaries/xsh_memstat.o
 .data          0x0000000000119190        0x0 binaries/xsh_ping.o
 .data          0x0000000000119190        0x0 binaries/xsh_ps.o
 .data          0x0000000000119190        0x0 binaries/xsh_sleep.o
 .data          0x0000000000119190        0x0 binaries/xsh_udpdump.o
 .data          0x0000000000119190        0x0 binaries/xsh_udpecho.o
 .data          0x0000000000119190        0x0 binaries/xsh_udpeserver.o
 .data          0x0000000000119190        0x0 binaries/xsh_uptime.o
 .data          0x0000000000119190        0x0 binaries/clkdisp.o
 .data          0x0000000000119190        0x0 binaries/ctxsw.o
 .data          0x0000000000119190        0x0 binaries/intr.o
 .data          0x0000000000119190        0x0 binaries/host2netla.o
 .data          0x0000000000119190        0x0 binaries/ttydispatch.o
 .data          0x0000000000119190        0x0 binaries/ethdispatch.o
                0x0000000000119190                edata = ABSOLUTE (.)
                0x000000000011a000                . = ALIGN (0x1000)
 *fill*         0x0000000000119190      0xe70 

.igot.plt       0x000000000011a000        0x0
 .igot.plt      0x000000000011a000        0x0 binaries/start.o

.bss            0x000000000011a000    0x20000
                0x000000000011a000                bss = ABSOLUTE (.)
 *(.bss .bss.*)
 .bss           0x000000000011a000        0x0 binaries/start.o
 .bss           0x000000000011a000        0x0 binaries/ascdate.o
 .bss           0x000000000011a000        0x0 binaries/bufinit.o
 .bss           0x000000000011a000        0x0 binaries/chprio.o
 .bss           0x000000000011a000        0x0 binaries/clkhandler.o
 .bss           0x000000000011a000        0x4 binaries/clkinit.o
                0x000000000011a000                ctr1000
 .bss           0x000000000011a004        0x0 binaries/close.o
 .bss           0x000000000011a004        0x0 binaries/conf.o
 .bss           0x000000000011a004        0x0 binaries/control.o
 .bss           0x000000000011a004        0x0 binaries/create.o
 .bss           0x000000000011a004        0x0 binaries/early_imr.o
 .bss           0x000000000011a004        0x0 binaries/evec.o
 .bss           0x000000000011a004        0x0 binaries/freebuf.o
 .bss           0x000000000011a004        0x0 binaries/freemem.o
 .bss           0x000000000011a004        0x0 binaries/getbuf.o
 .bss           0x000000000011a004        0x0 binaries/getc.o
 .bss           0x000000000011a004        0x0 binaries/getdev.o
 .bss           0x000000000011a004        0x0 binaries/getitem.o
 .bss           0x000000000011a004        0x0 binaries/getmem.o
 .bss           0x000000000011a004        0x0 binaries/getpid.o
 .bss           0x000000000011a004        0x0 binaries/getprio.o
 .bss           0x000000000011a004        0x0 binaries/getstk.o
 .bss           0x000000000011a004        0x0 binaries/gettime.o
 .bss           0x000000000011a004        0x0 binaries/getutime.o
 .bss           0x000000000011a004        0x0 binaries/init.o
 .bss           0x000000000011a004        0x0 binaries/initialize.o
 .bss           0x000000000011a004        0x0 binaries/insert.o
 .bss           0x000000000011a004        0x0 binaries/insertd.o
 .bss           0x000000000011a004        0x0 binaries/ioerr.o
 .bss           0x000000000011a004        0x0 binaries/ionull.o
 .bss           0x000000000011a004        0x0 binaries/kill.o
 .bss           0x000000000011a004        0x0 binaries/kprintf.o
 .bss           0x000000000011a004        0x4 binaries/main.o
                0x000000000011a004                victimglobal
 .bss           0x000000000011a008        0x0 binaries/mark.o
 .bss           0x000000000011a008        0x0 binaries/meminit.o
 .bss           0x000000000011a008        0x0 binaries/mkbufpool.o
 .bss           0x000000000011a008        0x0 binaries/newqueue.o
 .bss           0x000000000011a008        0x0 binaries/open.o
 .bss           0x000000000011a008        0x0 binaries/panic.o
 .bss           0x000000000011a008        0x0 binaries/pci.o
 .bss           0x000000000011a008        0x0 binaries/platinit.o
 .bss           0x000000000011a008        0x0 binaries/ptclear.o
 .bss           0x000000000011a008        0x0 binaries/ptcount.o
 .bss           0x000000000011a008        0x0 binaries/ptcreate.o
 .bss           0x000000000011a008        0x0 binaries/ptdelete.o
 .bss           0x000000000011a008        0x0 binaries/ptinit.o
 .bss           0x000000000011a008        0x0 binaries/ptrecv.o
 .bss           0x000000000011a008        0x0 binaries/ptreset.o
 .bss           0x000000000011a008        0x0 binaries/ptsend.o
 .bss           0x000000000011a008        0x0 binaries/putc.o
 .bss           0x000000000011a008        0x0 binaries/quark_irq.o
 .bss           0x000000000011a008        0x0 binaries/quark_pdat.o
 .bss           0x000000000011a008        0x0 binaries/queue.o
 .bss           0x000000000011a008        0x0 binaries/read.o
 .bss           0x000000000011a008        0x0 binaries/ready.o
 .bss           0x000000000011a008        0x0 binaries/receive.o
 .bss           0x000000000011a008        0x0 binaries/recvclr.o
 .bss           0x000000000011a008        0x0 binaries/recvtime.o
 .bss           0x000000000011a008        0x0 binaries/resched.o
 .bss           0x000000000011a008        0x0 binaries/resume.o
 .bss           0x000000000011a008        0x0 binaries/seek.o
 .bss           0x000000000011a008        0x0 binaries/semcount.o
 .bss           0x000000000011a008        0x4 binaries/semcreate.o
 .bss           0x000000000011a00c        0x0 binaries/semdelete.o
 .bss           0x000000000011a00c        0x0 binaries/semreset.o
 .bss           0x000000000011a00c        0x0 binaries/send.o
 .bss           0x000000000011a00c        0x0 binaries/signal.o
 .bss           0x000000000011a00c        0x0 binaries/signaln.o
 .bss           0x000000000011a00c        0x0 binaries/sleep.o
 .bss           0x000000000011a00c        0x8 binaries/stacktrace.o
 .bss           0x000000000011a014        0x0 binaries/suspend.o
 .bss           0x000000000011a014        0x0 binaries/unsleep.o
 .bss           0x000000000011a014        0x0 binaries/userret.o
 .bss           0x000000000011a014        0x0 binaries/wait.o
 .bss           0x000000000011a014        0x0 binaries/wakeup.o
 .bss           0x000000000011a014        0x0 binaries/write.o
 .bss           0x000000000011a014        0x0 binaries/xdone.o
 .bss           0x000000000011a014        0x0 binaries/yield.o
 .bss           0x000000000011a014        0x0 binaries/app1.o
 .bss           0x000000000011a014        0x0 binaries/app2.o
 .bss           0x000000000011a014        0x0 binaries/app3.o
 .bss           0x000000000011a014        0x0 binaries/getppid.o
 .bss           0x000000000011a014        0x0 binaries/getpstate.o
 .bss           0x000000000011a014        0x0 binaries/mywelcomemsg.o
 .bss           0x000000000011a014        0x0 binaries/host2netlb.o
 .bss           0x000000000011a014        0x0 binaries/host2netlc.o
 .bss           0x000000000011a014        0x0 binaries/prntsegaddr.o
 .bss           0x000000000011a014        0x0 binaries/stackdepth.o
 .bss           0x000000000011a014        0x0 binaries/stacktop.o
 .bss           0x000000000011a014        0x0 binaries/myappA.o
 .bss           0x000000000011a014        0x0 binaries/myhacker.o
 .bss           0x000000000011a014        0x0 binaries/myvictim.o
 .bss           0x000000000011a014        0x0 binaries/myhackermalware.o
 .bss           0x000000000011a014        0x0 binaries/lab2q3.o
 .bss           0x000000000011a014        0x0 binaries/cpubound.o
 .bss           0x000000000011a014        0x0 binaries/iobound.o
 .bss           0x000000000011a014        0x0 binaries/lab2q4.o
 .bss           0x000000000011a014        0x0 binaries/lab2q5t1.o
 .bss           0x000000000011a014        0x0 binaries/abs.o
 .bss           0x000000000011a014        0x0 binaries/atoi.o
 .bss           0x000000000011a014        0x0 binaries/atol.o
 .bss           0x000000000011a014        0x0 binaries/bzero.o
 .bss           0x000000000011a014        0x0 binaries/ctype_.o
 .bss           0x000000000011a014        0x0 binaries/doprnt.o
 .bss           0x000000000011a014        0x0 binaries/doscan.o
 .bss           0x000000000011a014        0x0 binaries/fdoprnt.o
 .bss           0x000000000011a014        0x0 binaries/fgetc.o
 .bss           0x000000000011a014        0x0 binaries/fgets.o
 .bss           0x000000000011a014        0x0 binaries/fprintf.o
 .bss           0x000000000011a014        0x0 binaries/fputc.o
 .bss           0x000000000011a014        0x0 binaries/fputs.o
 .bss           0x000000000011a014        0x0 binaries/fscanf.o
 .bss           0x000000000011a014        0x0 binaries/getchar.o
 .bss           0x000000000011a014        0x0 binaries/labs.o
 .bss           0x000000000011a014        0x0 binaries/memchr.o
 .bss           0x000000000011a014        0x0 binaries/memcmp.o
 .bss           0x000000000011a014        0x0 binaries/memcpy.o
 .bss           0x000000000011a014        0x0 binaries/memset.o
 .bss           0x000000000011a014        0x0 binaries/printf.o
 .bss           0x000000000011a014        0x0 binaries/putchar.o
 .bss           0x000000000011a014        0x8 binaries/qsort.o
 .bss           0x000000000011a01c        0x0 binaries/rand.o
 .bss           0x000000000011a01c        0x0 binaries/sprintf.o
 .bss           0x000000000011a01c        0x0 binaries/sscanf.o
 .bss           0x000000000011a01c        0x0 binaries/strchr.o
 .bss           0x000000000011a01c        0x0 binaries/strcmp.o
 .bss           0x000000000011a01c        0x0 binaries/strcpy.o
 .bss           0x000000000011a01c        0x0 binaries/strlen.o
 .bss           0x000000000011a01c        0x0 binaries/strncat.o
 .bss           0x000000000011a01c        0x0 binaries/strncmp.o
 .bss           0x000000000011a01c        0x0 binaries/strncpy.o
 .bss           0x000000000011a01c        0x0 binaries/strnlen.o
 .bss           0x000000000011a01c        0x0 binaries/strrchr.o
 .bss           0x000000000011a01c        0x0 binaries/strstr.o
 .bss           0x000000000011a01c        0x0 binaries/ttycontrol.o
 .bss           0x000000000011a01c        0x0 binaries/ttygetc.o
 .bss           0x000000000011a01c        0x0 binaries/ttyhandle_in.o
 .bss           0x000000000011a01c        0x0 binaries/ttyhandle_out.o
 .bss           0x000000000011a01c        0x0 binaries/ttyhandler.o
 .bss           0x000000000011a01c        0x0 binaries/ttyinit.o
 .bss           0x000000000011a01c        0x0 binaries/ttykickout.o
 .bss           0x000000000011a01c        0x0 binaries/ttyputc.o
 .bss           0x000000000011a01c        0x0 binaries/ttyread.o
 .bss           0x000000000011a01c        0x0 binaries/ttywrite.o
 .bss           0x000000000011a01c        0x0 binaries/mount.o
 .bss           0x000000000011a01c        0x0 binaries/naminit.o
 .bss           0x000000000011a01c        0x0 binaries/nammap.o
 .bss           0x000000000011a01c        0x0 binaries/namopen.o
 .bss           0x000000000011a01c        0x0 binaries/colon2mac.o
 .bss           0x000000000011a01c        0x0 binaries/ethcontrol.o
 .bss           0x000000000011a01c        0x0 binaries/ethhandler.o
 .bss           0x000000000011a01c        0x0 binaries/ethinit.o
 .bss           0x000000000011a01c        0x0 binaries/ethmcast.o
 .bss           0x000000000011a01c        0x0 binaries/ethread.o
 .bss           0x000000000011a01c        0x0 binaries/ethwrite.o
 .bss           0x000000000011a01c        0x0 binaries/rdsbufalloc.o
 .bss           0x000000000011a01c        0x0 binaries/rdsclose.o
 .bss           0x000000000011a01c        0x0 binaries/rdscomm.o
 .bss           0x000000000011a01c        0x0 binaries/rdscontrol.o
 .bss           0x000000000011a01c        0x0 binaries/rdsinit.o
 .bss           0x000000000011a01c        0x0 binaries/rdsopen.o
 .bss           0x000000000011a01c        0x0 binaries/rdsprocess.o
 .bss           0x000000000011a01c        0x0 binaries/rdsread.o
 .bss           0x000000000011a01c        0x0 binaries/rdswrite.o
 .bss           0x000000000011a01c        0x0 binaries/ramclose.o
 .bss           0x000000000011a01c        0x0 binaries/raminit.o
 .bss           0x000000000011a01c        0x0 binaries/ramopen.o
 .bss           0x000000000011a01c        0x0 binaries/ramread.o
 .bss           0x000000000011a01c        0x0 binaries/ramwrite.o
 .bss           0x000000000011a01c        0x0 binaries/lfdballoc.o
 .bss           0x000000000011a01c        0x0 binaries/lfdbfree.o
 .bss           0x000000000011a01c        0x0 binaries/lfflush.o
 .bss           0x000000000011a01c        0x0 binaries/lfgetmode.o
 .bss           0x000000000011a01c        0x0 binaries/lfiballoc.o
 .bss           0x000000000011a01c        0x0 binaries/lfibclear.o
 .bss           0x000000000011a01c        0x0 binaries/lfibget.o
 .bss           0x000000000011a01c        0x0 binaries/lfibput.o
 .bss           0x000000000011a01c        0x0 binaries/lflclose.o
 .bss           0x000000000011a01c        0x0 binaries/lflcontrol.o
 .bss           0x000000000011a01c        0x0 binaries/lflgetc.o
 .bss           0x000000000011a01c        0x0 binaries/lflinit.o
 .bss           0x000000000011a01c        0x0 binaries/lflputc.o
 .bss           0x000000000011a01c        0x0 binaries/lflread.o
 .bss           0x000000000011a01c        0x0 binaries/lflseek.o
 .bss           0x000000000011a01c        0x0 binaries/lflwrite.o
 .bss           0x000000000011a01c        0x0 binaries/lfsckfmt.o
 .bss           0x000000000011a01c        0x0 binaries/lfscreate.o
 .bss           0x000000000011a01c        0x0 binaries/lfsetup.o
 .bss           0x000000000011a01c        0x0 binaries/lfsinit.o
 .bss           0x000000000011a01c        0x0 binaries/lfsopen.o
 .bss           0x000000000011a01c        0x0 binaries/lftruncate.o
 .bss           0x000000000011a01c        0x0 binaries/rflclose.o
 .bss           0x000000000011a01c        0x0 binaries/rflgetc.o
 .bss           0x000000000011a01c        0x0 binaries/rflinit.o
 .bss           0x000000000011a01c        0x0 binaries/rflputc.o
 .bss           0x000000000011a01c        0x0 binaries/rflread.o
 .bss           0x000000000011a01c        0x0 binaries/rflseek.o
 .bss           0x000000000011a01c        0x0 binaries/rflwrite.o
 .bss           0x000000000011a01c        0x0 binaries/rfscomm.o
 .bss           0x000000000011a01c        0x0 binaries/rfscontrol.o
 .bss           0x000000000011a01c        0x0 binaries/rfsgetmode.o
 .bss           0x000000000011a01c        0x0 binaries/rfsinit.o
 .bss           0x000000000011a01c        0x0 binaries/rfsndmsg.o
 .bss           0x000000000011a01c        0x0 binaries/rfsopen.o
 .bss           0x000000000011a01c        0x0 binaries/arp.o
 .bss           0x000000000011a01c        0x0 binaries/dhcp.o
 .bss           0x000000000011a01c        0x0 binaries/dot2ip.o
 .bss           0x000000000011a01c        0x0 binaries/hexdump.o
 .bss           0x000000000011a01c        0x0 binaries/icmp.o
 .bss           0x000000000011a01c        0x0 binaries/ip.o
 .bss           0x000000000011a01c        0x0 binaries/net.o
 .bss           0x000000000011a01c        0x0 binaries/netstart.o
 .bss           0x000000000011a01c        0x0 binaries/pdump.o
 .bss           0x000000000011a01c        0x0 binaries/tftp.o
 .bss           0x000000000011a01c        0x0 binaries/udp.o
 .bss           0x000000000011a01c        0x0 binaries/addargs.o
 .bss           0x000000000011a01c        0x0 binaries/lexan.o
 .bss           0x000000000011a01c        0x0 binaries/shell.o
 .bss           0x000000000011a01c        0x0 binaries/xsh_argecho.o
 .bss           0x000000000011a01c        0x0 binaries/xsh_arp.o
 .bss           0x000000000011a01c        0x0 binaries/xsh_cat.o
 .bss           0x000000000011a01c        0x0 binaries/xsh_clear.o
 .bss           0x000000000011a01c        0x0 binaries/xsh_date.o
 .bss           0x000000000011a01c        0x0 binaries/xsh_devdump.o
 .bss           0x000000000011a01c        0x0 binaries/xsh_echo.o
 .bss           0x000000000011a01c        0x0 binaries/xsh_exit.o
 .bss           0x000000000011a01c        0x0 binaries/xsh_help.o
 .bss           0x000000000011a01c        0x0 binaries/xsh_ipaddr.o
 .bss           0x000000000011a01c        0x0 binaries/xsh_kill.o
 .bss           0x000000000011a01c        0x0 binaries/xsh_memdump.o
 .bss           0x000000000011a01c        0x0 binaries/xsh_memstat.o
 .bss           0x000000000011a01c        0x4 binaries/xsh_ping.o
 .bss           0x000000000011a020        0x0 binaries/xsh_ps.o
 .bss           0x000000000011a020        0x0 binaries/xsh_sleep.o
 .bss           0x000000000011a020        0x0 binaries/xsh_udpdump.o
 .bss           0x000000000011a020        0x0 binaries/xsh_udpecho.o
 .bss           0x000000000011a020        0x0 binaries/xsh_udpeserver.o
 .bss           0x000000000011a020        0x0 binaries/xsh_uptime.o
 .bss           0x000000000011a020        0x0 binaries/clkdisp.o
 .bss           0x000000000011a020        0x0 binaries/ctxsw.o
 .bss           0x000000000011a020        0x0 binaries/intr.o
 .bss           0x000000000011a020        0x0 binaries/host2netla.o
 .bss           0x000000000011a020        0x0 binaries/ttydispatch.o
 .bss           0x000000000011a020        0x0 binaries/ethdispatch.o
 *(COMMON)
 COMMON         0x000000000011a020       0xf4 binaries/bufinit.o
                0x000000000011a020                buftab
                0x000000000011a110                nbpools
 COMMON         0x000000000011a114       0x10 binaries/clkinit.o
                0x000000000011a114                sleepq
                0x000000000011a118                preempt
                0x000000000011a11c                clktimemsec
                0x000000000011a120                clktime
 COMMON         0x000000000011a124        0x2 binaries/evec.o
                0x000000000011a124                girmask
 *fill*         0x000000000011a126       0x1a 
 COMMON         0x000000000011a140     0x2118 binaries/initialize.o
                0x000000000011a140                currpid
                0x000000000011a160                proctab
                0x000000000011bd80                prcount
                0x000000000011bda0                semtab
                0x000000000011c250                memlist
 *fill*         0x000000000011c258        0x8 
 COMMON         0x000000000011c260       0x58 binaries/mark.o
                0x000000000011c260                marks
                0x000000000011c2b0                nmarks
                0x000000000011c2b4                mkmutex
 COMMON         0x000000000011c2b8        0x8 binaries/meminit.o
                0x000000000011c2b8                minheap
                0x000000000011c2bc                maxheap
 COMMON         0x000000000011c2c0      0x2d8 binaries/ptinit.o
                0x000000000011c2c0                porttab
                0x000000000011c590                ptnextid
                0x000000000011c594                ptfree
 *fill*         0x000000000011c598        0x8 
 COMMON         0x000000000011c5a0      0x980 binaries/queue.o
                0x000000000011c5a0                queuetab
 COMMON         0x000000000011cf20        0x2 binaries/ready.o
                0x000000000011cf20                readylist
 *fill*         0x000000000011cf22        0x2 
 COMMON         0x000000000011cf24        0x8 binaries/resched.o
                0x000000000011cf24                Defer
 COMMON         0x000000000011cf2c        0x4 binaries/myhacker.o
                0x000000000011cf2c                plzhackme_content
 *fill*         0x000000000011cf30       0x10 
 COMMON         0x000000000011cf40      0x10c binaries/ttyinit.o
                0x000000000011cf40                ttytab
 *fill*         0x000000000011d04c       0x14 
 COMMON         0x000000000011d060     0x19c0 binaries/naminit.o
                0x000000000011d060                nnames
                0x000000000011d080                nametab
 COMMON         0x000000000011ea20      0x138 binaries/ethinit.o
                0x000000000011ea20                ethertab
 *fill*         0x000000000011eb58        0x8 
 COMMON         0x000000000011eb60       0x8c binaries/rdsinit.o
                0x000000000011eb60                rdstab
 *fill*         0x000000000011ebec       0x14 
 COMMON         0x000000000011ec00    0x19000 binaries/raminit.o
                0x000000000011ec00                Ram
 COMMON         0x0000000000137c00      0xf00 binaries/lflinit.o
                0x0000000000137c00                lfltab
 COMMON         0x0000000000138b00      0x20c binaries/lfsinit.o
                0x0000000000138b00                Lf_data
 *fill*         0x0000000000138d0c       0x14 
 COMMON         0x0000000000138d20      0x5a0 binaries/rflinit.o
                0x0000000000138d20                rfltab
 COMMON         0x00000000001392c0       0x18 binaries/rfsinit.o
                0x00000000001392c0                Rf_data
 *fill*         0x00000000001392d8        0x8 
 COMMON         0x00000000001392e0      0x140 binaries/arp.o
                0x00000000001392e0                arpcache
 COMMON         0x0000000000139420      0x230 binaries/icmp.o
                0x0000000000139420                icmptab
 *fill*         0x0000000000139650       0x10 
 COMMON         0x0000000000139660       0x2c binaries/ip.o
                0x0000000000139660                ipoqueue
 *fill*         0x000000000013968c       0x14 
 COMMON         0x00000000001396a0       0xc8 binaries/net.o
                0x00000000001396a0                netbufpool
                0x00000000001396c0                NetData
 *fill*         0x0000000000139768       0x18 
 COMMON         0x0000000000139780      0x168 binaries/udp.o
                0x0000000000139780                udptab
                0x00000000001398e8                ebss = ABSOLUTE (.)
                0x000000000013a000                . = ALIGN (0x1000)
 *fill*         0x00000000001398e8      0x718 
 */()
                0x000000000013a000                end = ABSOLUTE (.)
                0x000000000013a000                _end = ABSOLUTE (.)
                0x000000000013a000                . = ALIGN (0x1000)
LOAD binaries/start.o
LOAD binaries/ascdate.o
LOAD binaries/bufinit.o
LOAD binaries/chprio.o
LOAD binaries/clkhandler.o
LOAD binaries/clkinit.o
LOAD binaries/close.o
LOAD binaries/conf.o
LOAD binaries/control.o
LOAD binaries/create.o
LOAD binaries/early_imr.o
LOAD binaries/evec.o
LOAD binaries/freebuf.o
LOAD binaries/freemem.o
LOAD binaries/getbuf.o
LOAD binaries/getc.o
LOAD binaries/getdev.o
LOAD binaries/getitem.o
LOAD binaries/getmem.o
LOAD binaries/getpid.o
LOAD binaries/getprio.o
LOAD binaries/getstk.o
LOAD binaries/gettime.o
LOAD binaries/getutime.o
LOAD binaries/init.o
LOAD binaries/initialize.o
LOAD binaries/insert.o
LOAD binaries/insertd.o
LOAD binaries/ioerr.o
LOAD binaries/ionull.o
LOAD binaries/kill.o
LOAD binaries/kprintf.o
LOAD binaries/main.o
LOAD binaries/mark.o
LOAD binaries/meminit.o
LOAD binaries/mkbufpool.o
LOAD binaries/newqueue.o
LOAD binaries/open.o
LOAD binaries/panic.o
LOAD binaries/pci.o
LOAD binaries/platinit.o
LOAD binaries/ptclear.o
LOAD binaries/ptcount.o
LOAD binaries/ptcreate.o
LOAD binaries/ptdelete.o
LOAD binaries/ptinit.o
LOAD binaries/ptrecv.o
LOAD binaries/ptreset.o
LOAD binaries/ptsend.o
LOAD binaries/putc.o
LOAD binaries/quark_irq.o
LOAD binaries/quark_pdat.o
LOAD binaries/queue.o
LOAD binaries/read.o
LOAD binaries/ready.o
LOAD binaries/receive.o
LOAD binaries/recvclr.o
LOAD binaries/recvtime.o
LOAD binaries/resched.o
LOAD binaries/resume.o
LOAD binaries/seek.o
LOAD binaries/semcount.o
LOAD binaries/semcreate.o
LOAD binaries/semdelete.o
LOAD binaries/semreset.o
LOAD binaries/send.o
LOAD binaries/signal.o
LOAD binaries/signaln.o
LOAD binaries/sleep.o
LOAD binaries/stacktrace.o
LOAD binaries/suspend.o
LOAD binaries/unsleep.o
LOAD binaries/userret.o
LOAD binaries/wait.o
LOAD binaries/wakeup.o
LOAD binaries/write.o
LOAD binaries/xdone.o
LOAD binaries/yield.o
LOAD binaries/app1.o
LOAD binaries/app2.o
LOAD binaries/app3.o
LOAD binaries/getppid.o
LOAD binaries/getpstate.o
LOAD binaries/mywelcomemsg.o
LOAD binaries/host2netlb.o
LOAD binaries/host2netlc.o
LOAD binaries/prntsegaddr.o
LOAD binaries/stackdepth.o
LOAD binaries/stacktop.o
LOAD binaries/myappA.o
LOAD binaries/myhacker.o
LOAD binaries/myvictim.o
LOAD binaries/myhackermalware.o
LOAD binaries/lab2q3.o
LOAD binaries/cpubound.o
LOAD binaries/iobound.o
LOAD binaries/lab2q4.o
LOAD binaries/lab2q5t1.o
LOAD binaries/abs.o
LOAD binaries/atoi.o
LOAD binaries/atol.o
LOAD binaries/bzero.o
LOAD binaries/ctype_.o
LOAD binaries/doprnt.o
LOAD binaries/doscan.o
LOAD binaries/fdoprnt.o
LOAD binaries/fgetc.o
LOAD binaries/fgets.o
LOAD binaries/fprintf.o
LOAD binaries/fputc.o
LOAD binaries/fputs.o
LOAD binaries/fscanf.o
LOAD binaries/getchar.o
LOAD binaries/labs.o
LOAD binaries/memchr.o
LOAD binaries/memcmp.o
LOAD binaries/memcpy.o
LOAD binaries/memset.o
LOAD binaries/printf.o
LOAD binaries/putchar.o
LOAD binaries/qsort.o
LOAD binaries/rand.o
LOAD binaries/sprintf.o
LOAD binaries/sscanf.o
LOAD binaries/strchr.o
LOAD binaries/strcmp.o
LOAD binaries/strcpy.o
LOAD binaries/strlen.o
LOAD binaries/strncat.o
LOAD binaries/strncmp.o
LOAD binaries/strncpy.o
LOAD binaries/strnlen.o
LOAD binaries/strrchr.o
LOAD binaries/strstr.o
LOAD binaries/ttycontrol.o
LOAD binaries/ttygetc.o
LOAD binaries/ttyhandle_in.o
LOAD binaries/ttyhandle_out.o
LOAD binaries/ttyhandler.o
LOAD binaries/ttyinit.o
LOAD binaries/ttykickout.o
LOAD binaries/ttyputc.o
LOAD binaries/ttyread.o
LOAD binaries/ttywrite.o
LOAD binaries/mount.o
LOAD binaries/naminit.o
LOAD binaries/nammap.o
LOAD binaries/namopen.o
LOAD binaries/colon2mac.o
LOAD binaries/ethcontrol.o
LOAD binaries/ethhandler.o
LOAD binaries/ethinit.o
LOAD binaries/ethmcast.o
LOAD binaries/ethread.o
LOAD binaries/ethwrite.o
LOAD binaries/rdsbufalloc.o
LOAD binaries/rdsclose.o
LOAD binaries/rdscomm.o
LOAD binaries/rdscontrol.o
LOAD binaries/rdsinit.o
LOAD binaries/rdsopen.o
LOAD binaries/rdsprocess.o
LOAD binaries/rdsread.o
LOAD binaries/rdswrite.o
LOAD binaries/ramclose.o
LOAD binaries/raminit.o
LOAD binaries/ramopen.o
LOAD binaries/ramread.o
LOAD binaries/ramwrite.o
LOAD binaries/lfdballoc.o
LOAD binaries/lfdbfree.o
LOAD binaries/lfflush.o
LOAD binaries/lfgetmode.o
LOAD binaries/lfiballoc.o
LOAD binaries/lfibclear.o
LOAD binaries/lfibget.o
LOAD binaries/lfibput.o
LOAD binaries/lflclose.o
LOAD binaries/lflcontrol.o
LOAD binaries/lflgetc.o
LOAD binaries/lflinit.o
LOAD binaries/lflputc.o
LOAD binaries/lflread.o
LOAD binaries/lflseek.o
LOAD binaries/lflwrite.o
LOAD binaries/lfsckfmt.o
LOAD binaries/lfscreate.o
LOAD binaries/lfsetup.o
LOAD binaries/lfsinit.o
LOAD binaries/lfsopen.o
LOAD binaries/lftruncate.o
LOAD binaries/rflclose.o
LOAD binaries/rflgetc.o
LOAD binaries/rflinit.o
LOAD binaries/rflputc.o
LOAD binaries/rflread.o
LOAD binaries/rflseek.o
LOAD binaries/rflwrite.o
LOAD binaries/rfscomm.o
LOAD binaries/rfscontrol.o
LOAD binaries/rfsgetmode.o
LOAD binaries/rfsinit.o
LOAD binaries/rfsndmsg.o
LOAD binaries/rfsopen.o
LOAD binaries/arp.o
LOAD binaries/dhcp.o
LOAD binaries/dot2ip.o
LOAD binaries/hexdump.o
LOAD binaries/icmp.o
LOAD binaries/ip.o
LOAD binaries/net.o
LOAD binaries/netstart.o
LOAD binaries/pdump.o
LOAD binaries/tftp.o
LOAD binaries/udp.o
LOAD binaries/addargs.o
LOAD binaries/lexan.o
LOAD binaries/shell.o
LOAD binaries/xsh_argecho.o
LOAD binaries/xsh_arp.o
LOAD binaries/xsh_cat.o
LOAD binaries/xsh_clear.o
LOAD binaries/xsh_date.o
LOAD binaries/xsh_devdump.o
LOAD binaries/xsh_echo.o
LOAD binaries/xsh_exit.o
LOAD binaries/xsh_help.o
LOAD binaries/xsh_ipaddr.o
LOAD binaries/xsh_kill.o
LOAD binaries/xsh_memdump.o
LOAD binaries/xsh_memstat.o
LOAD binaries/xsh_ping.o
LOAD binaries/xsh_ps.o
LOAD binaries/xsh_sleep.o
LOAD binaries/xsh_udpdump.o
LOAD binaries/xsh_udpecho.o
LOAD binaries/xsh_udpeserver.o
LOAD binaries/xsh_uptime.o
LOAD binaries/clkdisp.o
LOAD binaries/ctxsw.o
LOAD binaries/intr.o
LOAD binaries/host2netla.o
LOAD binaries/ttydispatch.o
LOAD binaries/ethdispatch.o
OUTPUT(../compile/xinu elf32-i386)

.comment        0x0000000000000000       0x2a
 .comment       0x0000000000000000       0x2a binaries/ascdate.o
                                         0x2b (size before relaxing)
 .comment       0x000000000000002a       0x2b binaries/bufinit.o
 .comment       0x000000000000002a       0x2b binaries/chprio.o
 .comment       0x000000000000002a       0x2b binaries/clkhandler.o
 .comment       0x000000000000002a       0x2b binaries/clkinit.o
 .comment       0x000000000000002a       0x2b binaries/close.o
 .comment       0x000000000000002a       0x2b binaries/conf.o
 .comment       0x000000000000002a       0x2b binaries/control.o
 .comment       0x000000000000002a       0x2b binaries/create.o
 .comment       0x000000000000002a       0x2b binaries/early_imr.o
 .comment       0x000000000000002a       0x2b binaries/evec.o
 .comment       0x000000000000002a       0x2b binaries/freebuf.o
 .comment       0x000000000000002a       0x2b binaries/freemem.o
 .comment       0x000000000000002a       0x2b binaries/getbuf.o
 .comment       0x000000000000002a       0x2b binaries/getc.o
 .comment       0x000000000000002a       0x2b binaries/getdev.o
 .comment       0x000000000000002a       0x2b binaries/getitem.o
 .comment       0x000000000000002a       0x2b binaries/getmem.o
 .comment       0x000000000000002a       0x2b binaries/getpid.o
 .comment       0x000000000000002a       0x2b binaries/getprio.o
 .comment       0x000000000000002a       0x2b binaries/getstk.o
 .comment       0x000000000000002a       0x2b binaries/gettime.o
 .comment       0x000000000000002a       0x2b binaries/getutime.o
 .comment       0x000000000000002a       0x2b binaries/init.o
 .comment       0x000000000000002a       0x2b binaries/initialize.o
 .comment       0x000000000000002a       0x2b binaries/insert.o
 .comment       0x000000000000002a       0x2b binaries/insertd.o
 .comment       0x000000000000002a       0x2b binaries/ioerr.o
 .comment       0x000000000000002a       0x2b binaries/ionull.o
 .comment       0x000000000000002a       0x2b binaries/kill.o
 .comment       0x000000000000002a       0x2b binaries/kprintf.o
 .comment       0x000000000000002a       0x2b binaries/main.o
 .comment       0x000000000000002a       0x2b binaries/mark.o
 .comment       0x000000000000002a       0x2b binaries/meminit.o
 .comment       0x000000000000002a       0x2b binaries/mkbufpool.o
 .comment       0x000000000000002a       0x2b binaries/newqueue.o
 .comment       0x000000000000002a       0x2b binaries/open.o
 .comment       0x000000000000002a       0x2b binaries/panic.o
 .comment       0x000000000000002a       0x2b binaries/pci.o
 .comment       0x000000000000002a       0x2b binaries/platinit.o
 .comment       0x000000000000002a       0x2b binaries/ptclear.o
 .comment       0x000000000000002a       0x2b binaries/ptcount.o
 .comment       0x000000000000002a       0x2b binaries/ptcreate.o
 .comment       0x000000000000002a       0x2b binaries/ptdelete.o
 .comment       0x000000000000002a       0x2b binaries/ptinit.o
 .comment       0x000000000000002a       0x2b binaries/ptrecv.o
 .comment       0x000000000000002a       0x2b binaries/ptreset.o
 .comment       0x000000000000002a       0x2b binaries/ptsend.o
 .comment       0x000000000000002a       0x2b binaries/putc.o
 .comment       0x000000000000002a       0x2b binaries/quark_irq.o
 .comment       0x000000000000002a       0x2b binaries/quark_pdat.o
 .comment       0x000000000000002a       0x2b binaries/queue.o
 .comment       0x000000000000002a       0x2b binaries/read.o
 .comment       0x000000000000002a       0x2b binaries/ready.o
 .comment       0x000000000000002a       0x2b binaries/receive.o
 .comment       0x000000000000002a       0x2b binaries/recvclr.o
 .comment       0x000000000000002a       0x2b binaries/recvtime.o
 .comment       0x000000000000002a       0x2b binaries/resched.o
 .comment       0x000000000000002a       0x2b binaries/resume.o
 .comment       0x000000000000002a       0x2b binaries/seek.o
 .comment       0x000000000000002a       0x2b binaries/semcount.o
 .comment       0x000000000000002a       0x2b binaries/semcreate.o
 .comment       0x000000000000002a       0x2b binaries/semdelete.o
 .comment       0x000000000000002a       0x2b binaries/semreset.o
 .comment       0x000000000000002a       0x2b binaries/send.o
 .comment       0x000000000000002a       0x2b binaries/signal.o
 .comment       0x000000000000002a       0x2b binaries/signaln.o
 .comment       0x000000000000002a       0x2b binaries/sleep.o
 .comment       0x000000000000002a       0x2b binaries/stacktrace.o
 .comment       0x000000000000002a       0x2b binaries/suspend.o
 .comment       0x000000000000002a       0x2b binaries/unsleep.o
 .comment       0x000000000000002a       0x2b binaries/userret.o
 .comment       0x000000000000002a       0x2b binaries/wait.o
 .comment       0x000000000000002a       0x2b binaries/wakeup.o
 .comment       0x000000000000002a       0x2b binaries/write.o
 .comment       0x000000000000002a       0x2b binaries/xdone.o
 .comment       0x000000000000002a       0x2b binaries/yield.o
 .comment       0x000000000000002a       0x2b binaries/app1.o
 .comment       0x000000000000002a       0x2b binaries/app2.o
 .comment       0x000000000000002a       0x2b binaries/app3.o
 .comment       0x000000000000002a       0x2b binaries/getppid.o
 .comment       0x000000000000002a       0x2b binaries/getpstate.o
 .comment       0x000000000000002a       0x2b binaries/mywelcomemsg.o
 .comment       0x000000000000002a       0x2b binaries/host2netlb.o
 .comment       0x000000000000002a       0x2b binaries/host2netlc.o
 .comment       0x000000000000002a       0x2b binaries/prntsegaddr.o
 .comment       0x000000000000002a       0x2b binaries/stackdepth.o
 .comment       0x000000000000002a       0x2b binaries/stacktop.o
 .comment       0x000000000000002a       0x2b binaries/myappA.o
 .comment       0x000000000000002a       0x2b binaries/myhacker.o
 .comment       0x000000000000002a       0x2b binaries/myvictim.o
 .comment       0x000000000000002a       0x2b binaries/myhackermalware.o
 .comment       0x000000000000002a       0x2b binaries/lab2q3.o
 .comment       0x000000000000002a       0x2b binaries/cpubound.o
 .comment       0x000000000000002a       0x2b binaries/iobound.o
 .comment       0x000000000000002a       0x2b binaries/lab2q4.o
 .comment       0x000000000000002a       0x2b binaries/lab2q5t1.o
 .comment       0x000000000000002a       0x2b binaries/abs.o
 .comment       0x000000000000002a       0x2b binaries/atoi.o
 .comment       0x000000000000002a       0x2b binaries/atol.o
 .comment       0x000000000000002a       0x2b binaries/bzero.o
 .comment       0x000000000000002a       0x2b binaries/ctype_.o
 .comment       0x000000000000002a       0x2b binaries/doprnt.o
 .comment       0x000000000000002a       0x2b binaries/doscan.o
 .comment       0x000000000000002a       0x2b binaries/fdoprnt.o
 .comment       0x000000000000002a       0x2b binaries/fgetc.o
 .comment       0x000000000000002a       0x2b binaries/fgets.o
 .comment       0x000000000000002a       0x2b binaries/fprintf.o
 .comment       0x000000000000002a       0x2b binaries/fputc.o
 .comment       0x000000000000002a       0x2b binaries/fputs.o
 .comment       0x000000000000002a       0x2b binaries/fscanf.o
 .comment       0x000000000000002a       0x2b binaries/getchar.o
 .comment       0x000000000000002a       0x2b binaries/labs.o
 .comment       0x000000000000002a       0x2b binaries/memchr.o
 .comment       0x000000000000002a       0x2b binaries/memcmp.o
 .comment       0x000000000000002a       0x2b binaries/memcpy.o
 .comment       0x000000000000002a       0x2b binaries/memset.o
 .comment       0x000000000000002a       0x2b binaries/printf.o
 .comment       0x000000000000002a       0x2b binaries/putchar.o
 .comment       0x000000000000002a       0x2b binaries/qsort.o
 .comment       0x000000000000002a       0x2b binaries/rand.o
 .comment       0x000000000000002a       0x2b binaries/sprintf.o
 .comment       0x000000000000002a       0x2b binaries/sscanf.o
 .comment       0x000000000000002a       0x2b binaries/strchr.o
 .comment       0x000000000000002a       0x2b binaries/strcmp.o
 .comment       0x000000000000002a       0x2b binaries/strcpy.o
 .comment       0x000000000000002a       0x2b binaries/strlen.o
 .comment       0x000000000000002a       0x2b binaries/strncat.o
 .comment       0x000000000000002a       0x2b binaries/strncmp.o
 .comment       0x000000000000002a       0x2b binaries/strncpy.o
 .comment       0x000000000000002a       0x2b binaries/strnlen.o
 .comment       0x000000000000002a       0x2b binaries/strrchr.o
 .comment       0x000000000000002a       0x2b binaries/strstr.o
 .comment       0x000000000000002a       0x2b binaries/ttycontrol.o
 .comment       0x000000000000002a       0x2b binaries/ttygetc.o
 .comment       0x000000000000002a       0x2b binaries/ttyhandle_in.o
 .comment       0x000000000000002a       0x2b binaries/ttyhandle_out.o
 .comment       0x000000000000002a       0x2b binaries/ttyhandler.o
 .comment       0x000000000000002a       0x2b binaries/ttyinit.o
 .comment       0x000000000000002a       0x2b binaries/ttykickout.o
 .comment       0x000000000000002a       0x2b binaries/ttyputc.o
 .comment       0x000000000000002a       0x2b binaries/ttyread.o
 .comment       0x000000000000002a       0x2b binaries/ttywrite.o
 .comment       0x000000000000002a       0x2b binaries/mount.o
 .comment       0x000000000000002a       0x2b binaries/naminit.o
 .comment       0x000000000000002a       0x2b binaries/nammap.o
 .comment       0x000000000000002a       0x2b binaries/namopen.o
 .comment       0x000000000000002a       0x2b binaries/colon2mac.o
 .comment       0x000000000000002a       0x2b binaries/ethcontrol.o
 .comment       0x000000000000002a       0x2b binaries/ethhandler.o
 .comment       0x000000000000002a       0x2b binaries/ethinit.o
 .comment       0x000000000000002a       0x2b binaries/ethmcast.o
 .comment       0x000000000000002a       0x2b binaries/ethread.o
 .comment       0x000000000000002a       0x2b binaries/ethwrite.o
 .comment       0x000000000000002a       0x2b binaries/rdsbufalloc.o
 .comment       0x000000000000002a       0x2b binaries/rdsclose.o
 .comment       0x000000000000002a       0x2b binaries/rdscomm.o
 .comment       0x000000000000002a       0x2b binaries/rdscontrol.o
 .comment       0x000000000000002a       0x2b binaries/rdsinit.o
 .comment       0x000000000000002a       0x2b binaries/rdsopen.o
 .comment       0x000000000000002a       0x2b binaries/rdsprocess.o
 .comment       0x000000000000002a       0x2b binaries/rdsread.o
 .comment       0x000000000000002a       0x2b binaries/rdswrite.o
 .comment       0x000000000000002a       0x2b binaries/ramclose.o
 .comment       0x000000000000002a       0x2b binaries/raminit.o
 .comment       0x000000000000002a       0x2b binaries/ramopen.o
 .comment       0x000000000000002a       0x2b binaries/ramread.o
 .comment       0x000000000000002a       0x2b binaries/ramwrite.o
 .comment       0x000000000000002a       0x2b binaries/lfdballoc.o
 .comment       0x000000000000002a       0x2b binaries/lfdbfree.o
 .comment       0x000000000000002a       0x2b binaries/lfflush.o
 .comment       0x000000000000002a       0x2b binaries/lfgetmode.o
 .comment       0x000000000000002a       0x2b binaries/lfiballoc.o
 .comment       0x000000000000002a       0x2b binaries/lfibclear.o
 .comment       0x000000000000002a       0x2b binaries/lfibget.o
 .comment       0x000000000000002a       0x2b binaries/lfibput.o
 .comment       0x000000000000002a       0x2b binaries/lflclose.o
 .comment       0x000000000000002a       0x2b binaries/lflcontrol.o
 .comment       0x000000000000002a       0x2b binaries/lflgetc.o
 .comment       0x000000000000002a       0x2b binaries/lflinit.o
 .comment       0x000000000000002a       0x2b binaries/lflputc.o
 .comment       0x000000000000002a       0x2b binaries/lflread.o
 .comment       0x000000000000002a       0x2b binaries/lflseek.o
 .comment       0x000000000000002a       0x2b binaries/lflwrite.o
 .comment       0x000000000000002a       0x2b binaries/lfsckfmt.o
 .comment       0x000000000000002a       0x2b binaries/lfscreate.o
 .comment       0x000000000000002a       0x2b binaries/lfsetup.o
 .comment       0x000000000000002a       0x2b binaries/lfsinit.o
 .comment       0x000000000000002a       0x2b binaries/lfsopen.o
 .comment       0x000000000000002a       0x2b binaries/lftruncate.o
 .comment       0x000000000000002a       0x2b binaries/rflclose.o
 .comment       0x000000000000002a       0x2b binaries/rflgetc.o
 .comment       0x000000000000002a       0x2b binaries/rflinit.o
 .comment       0x000000000000002a       0x2b binaries/rflputc.o
 .comment       0x000000000000002a       0x2b binaries/rflread.o
 .comment       0x000000000000002a       0x2b binaries/rflseek.o
 .comment       0x000000000000002a       0x2b binaries/rflwrite.o
 .comment       0x000000000000002a       0x2b binaries/rfscomm.o
 .comment       0x000000000000002a       0x2b binaries/rfscontrol.o
 .comment       0x000000000000002a       0x2b binaries/rfsgetmode.o
 .comment       0x000000000000002a       0x2b binaries/rfsinit.o
 .comment       0x000000000000002a       0x2b binaries/rfsndmsg.o
 .comment       0x000000000000002a       0x2b binaries/rfsopen.o
 .comment       0x000000000000002a       0x2b binaries/arp.o
 .comment       0x000000000000002a       0x2b binaries/dhcp.o
 .comment       0x000000000000002a       0x2b binaries/dot2ip.o
 .comment       0x000000000000002a       0x2b binaries/hexdump.o
 .comment       0x000000000000002a       0x2b binaries/icmp.o
 .comment       0x000000000000002a       0x2b binaries/ip.o
 .comment       0x000000000000002a       0x2b binaries/net.o
 .comment       0x000000000000002a       0x2b binaries/netstart.o
 .comment       0x000000000000002a       0x2b binaries/pdump.o
 .comment       0x000000000000002a       0x2b binaries/tftp.o
 .comment       0x000000000000002a       0x2b binaries/udp.o
 .comment       0x000000000000002a       0x2b binaries/addargs.o
 .comment       0x000000000000002a       0x2b binaries/lexan.o
 .comment       0x000000000000002a       0x2b binaries/shell.o
 .comment       0x000000000000002a       0x2b binaries/xsh_argecho.o
 .comment       0x000000000000002a       0x2b binaries/xsh_arp.o
 .comment       0x000000000000002a       0x2b binaries/xsh_cat.o
 .comment       0x000000000000002a       0x2b binaries/xsh_clear.o
 .comment       0x000000000000002a       0x2b binaries/xsh_date.o
 .comment       0x000000000000002a       0x2b binaries/xsh_devdump.o
 .comment       0x000000000000002a       0x2b binaries/xsh_echo.o
 .comment       0x000000000000002a       0x2b binaries/xsh_exit.o
 .comment       0x000000000000002a       0x2b binaries/xsh_help.o
 .comment       0x000000000000002a       0x2b binaries/xsh_ipaddr.o
 .comment       0x000000000000002a       0x2b binaries/xsh_kill.o
 .comment       0x000000000000002a       0x2b binaries/xsh_memdump.o
 .comment       0x000000000000002a       0x2b binaries/xsh_memstat.o
 .comment       0x000000000000002a       0x2b binaries/xsh_ping.o
 .comment       0x000000000000002a       0x2b binaries/xsh_ps.o
 .comment       0x000000000000002a       0x2b binaries/xsh_sleep.o
 .comment       0x000000000000002a       0x2b binaries/xsh_udpdump.o
 .comment       0x000000000000002a       0x2b binaries/xsh_udpecho.o
 .comment       0x000000000000002a       0x2b binaries/xsh_udpeserver.o
 .comment       0x000000000000002a       0x2b binaries/xsh_uptime.o

.note.GNU-stack
                0x0000000000000000        0x0
 .note.GNU-stack
                0x0000000000000000        0x0 binaries/ascdate.o
 .note.GNU-stack
                0x0000000000000000        0x0 binaries/bufinit.o
 .note.GNU-stack
                0x0000000000000000        0x0 binaries/chprio.o
 .note.GNU-stack
                0x0000000000000000        0x0 binaries/clkhandler.o
 .note.GNU-stack
                0x0000000000000000        0x0 binaries/clkinit.o
 .note.GNU-stack
                0x0000000000000000        0x0 binaries/close.o
 .note.GNU-stack
                0x0000000000000000        0x0 binaries/conf.o
 .note.GNU-stack
                0x0000000000000000        0x0 binaries/control.o
 .note.GNU-stack
                0x0000000000000000        0x0 binaries/create.o
 .note.GNU-stack
                0x0000000000000000        0x0 binaries/early_imr.o
 .note.GNU-stack
                0x0000000000000000        0x0 binaries/evec.o
 .note.GNU-stack
                0x0000000000000000        0x0 binaries/freebuf.o
 .note.GNU-stack
                0x0000000000000000        0x0 binaries/freemem.o
 .note.GNU-stack
                0x0000000000000000        0x0 binaries/getbuf.o
 .note.GNU-stack
                0x0000000000000000        0x0 binaries/getc.o
 .note.GNU-stack
                0x0000000000000000        0x0 binaries/getdev.o
 .note.GNU-stack
                0x0000000000000000        0x0 binaries/getitem.o
 .note.GNU-stack
                0x0000000000000000        0x0 binaries/getmem.o
 .note.GNU-stack
                0x0000000000000000        0x0 binaries/getpid.o
 .note.GNU-stack
                0x0000000000000000        0x0 binaries/getprio.o
 .note.GNU-stack
                0x0000000000000000        0x0 binaries/getstk.o
 .note.GNU-stack
                0x0000000000000000        0x0 binaries/gettime.o
 .note.GNU-stack
                0x0000000000000000        0x0 binaries/getutime.o
 .note.GNU-stack
                0x0000000000000000        0x0 binaries/init.o
 .note.GNU-stack
                0x0000000000000000        0x0 binaries/initialize.o
 .note.GNU-stack
                0x0000000000000000        0x0 binaries/insert.o
 .note.GNU-stack
                0x0000000000000000        0x0 binaries/insertd.o
 .note.GNU-stack
                0x0000000000000000        0x0 binaries/ioerr.o
 .note.GNU-stack
                0x0000000000000000        0x0 binaries/ionull.o
 .note.GNU-stack
                0x0000000000000000        0x0 binaries/kill.o
 .note.GNU-stack
                0x0000000000000000        0x0 binaries/kprintf.o
 .note.GNU-stack
                0x0000000000000000        0x0 binaries/main.o
 .note.GNU-stack
                0x0000000000000000        0x0 binaries/mark.o
 .note.GNU-stack
                0x0000000000000000        0x0 binaries/meminit.o
 .note.GNU-stack
                0x0000000000000000        0x0 binaries/mkbufpool.o
 .note.GNU-stack
                0x0000000000000000        0x0 binaries/newqueue.o
 .note.GNU-stack
                0x0000000000000000        0x0 binaries/open.o
 .note.GNU-stack
                0x0000000000000000        0x0 binaries/panic.o
 .note.GNU-stack
                0x0000000000000000        0x0 binaries/pci.o
 .note.GNU-stack
                0x0000000000000000        0x0 binaries/platinit.o
 .note.GNU-stack
                0x0000000000000000        0x0 binaries/ptclear.o
 .note.GNU-stack
                0x0000000000000000        0x0 binaries/ptcount.o
 .note.GNU-stack
                0x0000000000000000        0x0 binaries/ptcreate.o
 .note.GNU-stack
                0x0000000000000000        0x0 binaries/ptdelete.o
 .note.GNU-stack
                0x0000000000000000        0x0 binaries/ptinit.o
 .note.GNU-stack
                0x0000000000000000        0x0 binaries/ptrecv.o
 .note.GNU-stack
                0x0000000000000000        0x0 binaries/ptreset.o
 .note.GNU-stack
                0x0000000000000000        0x0 binaries/ptsend.o
 .note.GNU-stack
                0x0000000000000000        0x0 binaries/putc.o
 .note.GNU-stack
                0x0000000000000000        0x0 binaries/quark_irq.o
 .note.GNU-stack
                0x0000000000000000        0x0 binaries/quark_pdat.o
 .note.GNU-stack
                0x0000000000000000        0x0 binaries/queue.o
 .note.GNU-stack
                0x0000000000000000        0x0 binaries/read.o
 .note.GNU-stack
                0x0000000000000000        0x0 binaries/ready.o
 .note.GNU-stack
                0x0000000000000000        0x0 binaries/receive.o
 .note.GNU-stack
                0x0000000000000000        0x0 binaries/recvclr.o
 .note.GNU-stack
                0x0000000000000000        0x0 binaries/recvtime.o
 .note.GNU-stack
                0x0000000000000000        0x0 binaries/resched.o
 .note.GNU-stack
                0x0000000000000000        0x0 binaries/resume.o
 .note.GNU-stack
                0x0000000000000000        0x0 binaries/seek.o
 .note.GNU-stack
                0x0000000000000000        0x0 binaries/semcount.o
 .note.GNU-stack
                0x0000000000000000        0x0 binaries/semcreate.o
 .note.GNU-stack
                0x0000000000000000        0x0 binaries/semdelete.o
 .note.GNU-stack
                0x0000000000000000        0x0 binaries/semreset.o
 .note.GNU-stack
                0x0000000000000000        0x0 binaries/send.o
 .note.GNU-stack
                0x0000000000000000        0x0 binaries/signal.o
 .note.GNU-stack
                0x0000000000000000        0x0 binaries/signaln.o
 .note.GNU-stack
                0x0000000000000000        0x0 binaries/sleep.o
 .note.GNU-stack
                0x0000000000000000        0x0 binaries/stacktrace.o
 .note.GNU-stack
                0x0000000000000000        0x0 binaries/suspend.o
 .note.GNU-stack
                0x0000000000000000        0x0 binaries/unsleep.o
 .note.GNU-stack
                0x0000000000000000        0x0 binaries/userret.o
 .note.GNU-stack
                0x0000000000000000        0x0 binaries/wait.o
 .note.GNU-stack
                0x0000000000000000        0x0 binaries/wakeup.o
 .note.GNU-stack
                0x0000000000000000        0x0 binaries/write.o
 .note.GNU-stack
                0x0000000000000000        0x0 binaries/xdone.o
 .note.GNU-stack
                0x0000000000000000        0x0 binaries/yield.o
 .note.GNU-stack
                0x0000000000000000        0x0 binaries/app1.o
 .note.GNU-stack
                0x0000000000000000        0x0 binaries/app2.o
 .note.GNU-stack
                0x0000000000000000        0x0 binaries/app3.o
 .note.GNU-stack
                0x0000000000000000        0x0 binaries/getppid.o
 .note.GNU-stack
                0x0000000000000000        0x0 binaries/getpstate.o
 .note.GNU-stack
                0x0000000000000000        0x0 binaries/mywelcomemsg.o
 .note.GNU-stack
                0x0000000000000000        0x0 binaries/host2netlb.o
 .note.GNU-stack
                0x0000000000000000        0x0 binaries/host2netlc.o
 .note.GNU-stack
                0x0000000000000000        0x0 binaries/prntsegaddr.o
 .note.GNU-stack
                0x0000000000000000        0x0 binaries/stackdepth.o
 .note.GNU-stack
                0x0000000000000000        0x0 binaries/stacktop.o
 .note.GNU-stack
                0x0000000000000000        0x0 binaries/myappA.o
 .note.GNU-stack
                0x0000000000000000        0x0 binaries/myhacker.o
 .note.GNU-stack
                0x0000000000000000        0x0 binaries/myvictim.o
 .note.GNU-stack
                0x0000000000000000        0x0 binaries/myhackermalware.o
 .note.GNU-stack
                0x0000000000000000        0x0 binaries/lab2q3.o
 .note.GNU-stack
                0x0000000000000000        0x0 binaries/cpubound.o
 .note.GNU-stack
                0x0000000000000000        0x0 binaries/iobound.o
 .note.GNU-stack
                0x0000000000000000        0x0 binaries/lab2q4.o
 .note.GNU-stack
                0x0000000000000000        0x0 binaries/lab2q5t1.o
 .note.GNU-stack
                0x0000000000000000        0x0 binaries/abs.o
 .note.GNU-stack
                0x0000000000000000        0x0 binaries/atoi.o
 .note.GNU-stack
                0x0000000000000000        0x0 binaries/atol.o
 .note.GNU-stack
                0x0000000000000000        0x0 binaries/bzero.o
 .note.GNU-stack
                0x0000000000000000        0x0 binaries/ctype_.o
 .note.GNU-stack
                0x0000000000000000        0x0 binaries/doprnt.o
 .note.GNU-stack
                0x0000000000000000        0x0 binaries/doscan.o
 .note.GNU-stack
                0x0000000000000000        0x0 binaries/fdoprnt.o
 .note.GNU-stack
                0x0000000000000000        0x0 binaries/fgetc.o
 .note.GNU-stack
                0x0000000000000000        0x0 binaries/fgets.o
 .note.GNU-stack
                0x0000000000000000        0x0 binaries/fprintf.o
 .note.GNU-stack
                0x0000000000000000        0x0 binaries/fputc.o
 .note.GNU-stack
                0x0000000000000000        0x0 binaries/fputs.o
 .note.GNU-stack
                0x0000000000000000        0x0 binaries/fscanf.o
 .note.GNU-stack
                0x0000000000000000        0x0 binaries/getchar.o
 .note.GNU-stack
                0x0000000000000000        0x0 binaries/labs.o
 .note.GNU-stack
                0x0000000000000000        0x0 binaries/memchr.o
 .note.GNU-stack
                0x0000000000000000        0x0 binaries/memcmp.o
 .note.GNU-stack
                0x0000000000000000        0x0 binaries/memcpy.o
 .note.GNU-stack
                0x0000000000000000        0x0 binaries/memset.o
 .note.GNU-stack
                0x0000000000000000        0x0 binaries/printf.o
 .note.GNU-stack
                0x0000000000000000        0x0 binaries/putchar.o
 .note.GNU-stack
                0x0000000000000000        0x0 binaries/qsort.o
 .note.GNU-stack
                0x0000000000000000        0x0 binaries/rand.o
 .note.GNU-stack
                0x0000000000000000        0x0 binaries/sprintf.o
 .note.GNU-stack
                0x0000000000000000        0x0 binaries/sscanf.o
 .note.GNU-stack
                0x0000000000000000        0x0 binaries/strchr.o
 .note.GNU-stack
                0x0000000000000000        0x0 binaries/strcmp.o
 .note.GNU-stack
                0x0000000000000000        0x0 binaries/strcpy.o
 .note.GNU-stack
                0x0000000000000000        0x0 binaries/strlen.o
 .note.GNU-stack
                0x0000000000000000        0x0 binaries/strncat.o
 .note.GNU-stack
                0x0000000000000000        0x0 binaries/strncmp.o
 .note.GNU-stack
                0x0000000000000000        0x0 binaries/strncpy.o
 .note.GNU-stack
                0x0000000000000000        0x0 binaries/strnlen.o
 .note.GNU-stack
                0x0000000000000000        0x0 binaries/strrchr.o
 .note.GNU-stack
                0x0000000000000000        0x0 binaries/strstr.o
 .note.GNU-stack
                0x0000000000000000        0x0 binaries/ttycontrol.o
 .note.GNU-stack
                0x0000000000000000        0x0 binaries/ttygetc.o
 .note.GNU-stack
                0x0000000000000000        0x0 binaries/ttyhandle_in.o
 .note.GNU-stack
                0x0000000000000000        0x0 binaries/ttyhandle_out.o
 .note.GNU-stack
                0x0000000000000000        0x0 binaries/ttyhandler.o
 .note.GNU-stack
                0x0000000000000000        0x0 binaries/ttyinit.o
 .note.GNU-stack
                0x0000000000000000        0x0 binaries/ttykickout.o
 .note.GNU-stack
                0x0000000000000000        0x0 binaries/ttyputc.o
 .note.GNU-stack
                0x0000000000000000        0x0 binaries/ttyread.o
 .note.GNU-stack
                0x0000000000000000        0x0 binaries/ttywrite.o
 .note.GNU-stack
                0x0000000000000000        0x0 binaries/mount.o
 .note.GNU-stack
                0x0000000000000000        0x0 binaries/naminit.o
 .note.GNU-stack
                0x0000000000000000        0x0 binaries/nammap.o
 .note.GNU-stack
                0x0000000000000000        0x0 binaries/namopen.o
 .note.GNU-stack
                0x0000000000000000        0x0 binaries/colon2mac.o
 .note.GNU-stack
                0x0000000000000000        0x0 binaries/ethcontrol.o
 .note.GNU-stack
                0x0000000000000000        0x0 binaries/ethhandler.o
 .note.GNU-stack
                0x0000000000000000        0x0 binaries/ethinit.o
 .note.GNU-stack
                0x0000000000000000        0x0 binaries/ethmcast.o
 .note.GNU-stack
                0x0000000000000000        0x0 binaries/ethread.o
 .note.GNU-stack
                0x0000000000000000        0x0 binaries/ethwrite.o
 .note.GNU-stack
                0x0000000000000000        0x0 binaries/rdsbufalloc.o
 .note.GNU-stack
                0x0000000000000000        0x0 binaries/rdsclose.o
 .note.GNU-stack
                0x0000000000000000        0x0 binaries/rdscomm.o
 .note.GNU-stack
                0x0000000000000000        0x0 binaries/rdscontrol.o
 .note.GNU-stack
                0x0000000000000000        0x0 binaries/rdsinit.o
 .note.GNU-stack
                0x0000000000000000        0x0 binaries/rdsopen.o
 .note.GNU-stack
                0x0000000000000000        0x0 binaries/rdsprocess.o
 .note.GNU-stack
                0x0000000000000000        0x0 binaries/rdsread.o
 .note.GNU-stack
                0x0000000000000000        0x0 binaries/rdswrite.o
 .note.GNU-stack
                0x0000000000000000        0x0 binaries/ramclose.o
 .note.GNU-stack
                0x0000000000000000        0x0 binaries/raminit.o
 .note.GNU-stack
                0x0000000000000000        0x0 binaries/ramopen.o
 .note.GNU-stack
                0x0000000000000000        0x0 binaries/ramread.o
 .note.GNU-stack
                0x0000000000000000        0x0 binaries/ramwrite.o
 .note.GNU-stack
                0x0000000000000000        0x0 binaries/lfdballoc.o
 .note.GNU-stack
                0x0000000000000000        0x0 binaries/lfdbfree.o
 .note.GNU-stack
                0x0000000000000000        0x0 binaries/lfflush.o
 .note.GNU-stack
                0x0000000000000000        0x0 binaries/lfgetmode.o
 .note.GNU-stack
                0x0000000000000000        0x0 binaries/lfiballoc.o
 .note.GNU-stack
                0x0000000000000000        0x0 binaries/lfibclear.o
 .note.GNU-stack
                0x0000000000000000        0x0 binaries/lfibget.o
 .note.GNU-stack
                0x0000000000000000        0x0 binaries/lfibput.o
 .note.GNU-stack
                0x0000000000000000        0x0 binaries/lflclose.o
 .note.GNU-stack
                0x0000000000000000        0x0 binaries/lflcontrol.o
 .note.GNU-stack
                0x0000000000000000        0x0 binaries/lflgetc.o
 .note.GNU-stack
                0x0000000000000000        0x0 binaries/lflinit.o
 .note.GNU-stack
                0x0000000000000000        0x0 binaries/lflputc.o
 .note.GNU-stack
                0x0000000000000000        0x0 binaries/lflread.o
 .note.GNU-stack
                0x0000000000000000        0x0 binaries/lflseek.o
 .note.GNU-stack
                0x0000000000000000        0x0 binaries/lflwrite.o
 .note.GNU-stack
                0x0000000000000000        0x0 binaries/lfsckfmt.o
 .note.GNU-stack
                0x0000000000000000        0x0 binaries/lfscreate.o
 .note.GNU-stack
                0x0000000000000000        0x0 binaries/lfsetup.o
 .note.GNU-stack
                0x0000000000000000        0x0 binaries/lfsinit.o
 .note.GNU-stack
                0x0000000000000000        0x0 binaries/lfsopen.o
 .note.GNU-stack
                0x0000000000000000        0x0 binaries/lftruncate.o
 .note.GNU-stack
                0x0000000000000000        0x0 binaries/rflclose.o
 .note.GNU-stack
                0x0000000000000000        0x0 binaries/rflgetc.o
 .note.GNU-stack
                0x0000000000000000        0x0 binaries/rflinit.o
 .note.GNU-stack
                0x0000000000000000        0x0 binaries/rflputc.o
 .note.GNU-stack
                0x0000000000000000        0x0 binaries/rflread.o
 .note.GNU-stack
                0x0000000000000000        0x0 binaries/rflseek.o
 .note.GNU-stack
                0x0000000000000000        0x0 binaries/rflwrite.o
 .note.GNU-stack
                0x0000000000000000        0x0 binaries/rfscomm.o
 .note.GNU-stack
                0x0000000000000000        0x0 binaries/rfscontrol.o
 .note.GNU-stack
                0x0000000000000000        0x0 binaries/rfsgetmode.o
 .note.GNU-stack
                0x0000000000000000        0x0 binaries/rfsinit.o
 .note.GNU-stack
                0x0000000000000000        0x0 binaries/rfsndmsg.o
 .note.GNU-stack
                0x0000000000000000        0x0 binaries/rfsopen.o
 .note.GNU-stack
                0x0000000000000000        0x0 binaries/arp.o
 .note.GNU-stack
                0x0000000000000000        0x0 binaries/dhcp.o
 .note.GNU-stack
                0x0000000000000000        0x0 binaries/dot2ip.o
 .note.GNU-stack
                0x0000000000000000        0x0 binaries/hexdump.o
 .note.GNU-stack
                0x0000000000000000        0x0 binaries/icmp.o
 .note.GNU-stack
                0x0000000000000000        0x0 binaries/ip.o
 .note.GNU-stack
                0x0000000000000000        0x0 binaries/net.o
 .note.GNU-stack
                0x0000000000000000        0x0 binaries/netstart.o
 .note.GNU-stack
                0x0000000000000000        0x0 binaries/pdump.o
 .note.GNU-stack
                0x0000000000000000        0x0 binaries/tftp.o
 .note.GNU-stack
                0x0000000000000000        0x0 binaries/udp.o
 .note.GNU-stack
                0x0000000000000000        0x0 binaries/addargs.o
 .note.GNU-stack
                0x0000000000000000        0x0 binaries/lexan.o
 .note.GNU-stack
                0x0000000000000000        0x0 binaries/shell.o
 .note.GNU-stack
                0x0000000000000000        0x0 binaries/xsh_argecho.o
 .note.GNU-stack
                0x0000000000000000        0x0 binaries/xsh_arp.o
 .note.GNU-stack
                0x0000000000000000        0x0 binaries/xsh_cat.o
 .note.GNU-stack
                0x0000000000000000        0x0 binaries/xsh_clear.o
 .note.GNU-stack
                0x0000000000000000        0x0 binaries/xsh_date.o
 .note.GNU-stack
                0x0000000000000000        0x0 binaries/xsh_devdump.o
 .note.GNU-stack
                0x0000000000000000        0x0 binaries/xsh_echo.o
 .note.GNU-stack
                0x0000000000000000        0x0 binaries/xsh_exit.o
 .note.GNU-stack
                0x0000000000000000        0x0 binaries/xsh_help.o
 .note.GNU-stack
                0x0000000000000000        0x0 binaries/xsh_ipaddr.o
 .note.GNU-stack
                0x0000000000000000        0x0 binaries/xsh_kill.o
 .note.GNU-stack
                0x0000000000000000        0x0 binaries/xsh_memdump.o
 .note.GNU-stack
                0x0000000000000000        0x0 binaries/xsh_memstat.o
 .note.GNU-stack
                0x0000000000000000        0x0 binaries/xsh_ping.o
 .note.GNU-stack
                0x0000000000000000        0x0 binaries/xsh_ps.o
 .note.GNU-stack
                0x0000000000000000        0x0 binaries/xsh_sleep.o
 .note.GNU-stack
                0x0000000000000000        0x0 binaries/xsh_udpdump.o
 .note.GNU-stack
                0x0000000000000000        0x0 binaries/xsh_udpecho.o
 .note.GNU-stack
                0x0000000000000000        0x0 binaries/xsh_udpeserver.o
 .note.GNU-stack
                0x0000000000000000        0x0 binaries/xsh_uptime.o
