
Allocating common symbols
Common symbol       size              file

netbufpool          0x4               binaries/net.o
readylist           0x2               binaries/ready.o
rfltab              0x5a0             binaries/rflinit.o
plzhackme_content   0x4               binaries/myhacker.o
sleepq              0x2               binaries/clkinit.o
nnames              0x4               binaries/naminit.o
udptab              0x168             binaries/udp.o
minheap             0x4               binaries/meminit.o
marks               0x50              binaries/mark.o
currpid             0x4               binaries/initialize.o
Lf_data             0x20c             binaries/lfsinit.o
porttab             0x2d0             binaries/ptinit.o
girmask             0x2               binaries/evec.o
ttytab              0x10c             binaries/ttyinit.o
proctab             0x1900            binaries/initialize.o
prcount             0x4               binaries/initialize.o
lfltab              0xf00             binaries/lflinit.o
rdstab              0x8c              binaries/rdsinit.o
ethertab            0x138             binaries/ethinit.o
NetData             0xa8              binaries/net.o
nmarks              0x4               binaries/mark.o
Defer               0x8               binaries/resched.o
semtab              0x4b0             binaries/initialize.o
maxheap             0x4               binaries/meminit.o
preempt             0x4               binaries/clkinit.o
buftab              0xf0              binaries/bufinit.o
Rf_data             0x18              binaries/rfsinit.o
mkmutex             0x4               binaries/mark.o
clktimemsec         0x4               binaries/clkinit.o
clktime             0x4               binaries/clkinit.o
arpcache            0x140             binaries/arp.o
icmptab             0x230             binaries/icmp.o
nbpools             0x4               binaries/bufinit.o
queuetab            0x980             binaries/queue.o
ptnextid            0x4               binaries/ptinit.o
Ram                 0x19000           binaries/raminit.o
ipoqueue            0x2c              binaries/ip.o
memlist             0x8               binaries/initialize.o
nametab             0x19a0            binaries/naminit.o
ptfree              0x4               binaries/ptinit.o

Memory Configuration

Name             Origin             Length             Attributes
*default*        0x0000000000000000 0xffffffffffffffff

Linker script and memory map

                0x0000000000100000                physbase = 0x100000
                0x0000000000100000                . = physbase
                0x0000000000100000                . = ALIGN (0x1000)

.text           0x0000000000100000    0x15000
                0x0000000000100000                text = ABSOLUTE (.)
 *(.text .text.*)
 .text          0x0000000000100000      0x1ab binaries/start.o
                0x0000000000100028                start
                0x00000000001000f9                inb
                0x0000000000100101                inw
                0x000000000010010a                inl
                0x0000000000100112                outb
                0x000000000010011c                outw
                0x0000000000100127                outl
                0x0000000000100131                _rtcin
                0x000000000010013c                ___udivsi3
                0x0000000000100147                ___divsi3
                0x0000000000100153                sbzero
                0x0000000000100163                bcopy
                0x0000000000100177                insw
                0x000000000010018d                outsw
                0x00000000001001a3                lidt
 .text          0x00000000001001ab      0x2b9 binaries/ascdate.o
                0x00000000001001ab                ascdate
 .text          0x0000000000100464       0x14 binaries/bufinit.o
                0x0000000000100464                bufinit
 .text          0x0000000000100478       0x62 binaries/chprio.o
                0x0000000000100478                chprio
 .text          0x00000000001004da       0x7a binaries/clkhandler.o
                0x00000000001004da                clkhandler
 .text          0x0000000000100554       0x5d binaries/clkinit.o
                0x0000000000100554                clkinit
 .text          0x00000000001005b1       0x56 binaries/close.o
                0x00000000001005b1                close
 .text          0x0000000000100607        0x0 binaries/conf.o
 .text          0x0000000000100607       0x5c binaries/control.o
                0x0000000000100607                control
 .text          0x0000000000100663      0x229 binaries/create.o
                0x0000000000100663                create
 .text          0x000000000010088c      0x20e binaries/early_imr.o
                0x000000000010088c                intel_cln_early_sb_read_reg
                0x00000000001008e3                intel_cln_early_sb_write_reg
                0x000000000010099d                remove_irm_protections
 .text          0x0000000000100a9a      0x2e2 binaries/evec.o
                0x0000000000100a9a                setirmask
                0x0000000000100ad2                set_evec
                0x0000000000100b2d                initevec
                0x0000000000100bff                trap
 .text          0x0000000000100d7c       0x7f binaries/freebuf.o
                0x0000000000100d7c                freebuf
 .text          0x0000000000100dfb      0x108 binaries/freemem.o
                0x0000000000100dfb                freemem
 .text          0x0000000000100f03       0x6e binaries/getbuf.o
                0x0000000000100f03                getbuf
 .text          0x0000000000100f71       0x56 binaries/getc.o
                0x0000000000100f71                getc
 .text          0x0000000000100fc7       0x69 binaries/getdev.o
                0x0000000000100fc7                getdev
 .text          0x0000000000101030       0x82 binaries/getitem.o
                0x0000000000101030                getitem
                0x000000000010105f                getfirst
                0x0000000000101086                getlast
 .text          0x00000000001010b2       0xc2 binaries/getmem.o
                0x00000000001010b2                getmem
 .text          0x0000000000101174        0xa binaries/getpid.o
                0x0000000000101174                getpid
 .text          0x000000000010117e       0x54 binaries/getprio.o
                0x000000000010117e                getprio
 .text          0x00000000001011d2       0xac binaries/getstk.o
                0x00000000001011d2                getstk
 .text          0x000000000010127e       0x32 binaries/gettime.o
                0x000000000010127e                gettime
 .text          0x00000000001012b0      0x186 binaries/getutime.o
                0x00000000001012b0                getutime
 .text          0x0000000000101436       0x56 binaries/init.o
                0x0000000000101436                init
 .text          0x000000000010148c      0x246 binaries/initialize.o
                0x000000000010148c                nulluser
                0x0000000000101688                stop
                0x00000000001016ac                delay
 .text          0x00000000001016d2       0x98 binaries/insert.o
                0x00000000001016d2                insert
 .text          0x000000000010176a       0xe8 binaries/insertd.o
                0x000000000010176a                insertd
 .text          0x0000000000101852        0xa binaries/ioerr.o
                0x0000000000101852                ioerr
 .text          0x000000000010185c        0xa binaries/ionull.o
                0x000000000010185c                ionull
 .text          0x0000000000101866      0x161 binaries/kill.o
                0x0000000000101866                kill
 .text          0x00000000001019c7       0xa9 binaries/kprintf.o
                0x00000000001019c7                kputc
                0x00000000001019f9                console_init
                0x0000000000101a2c                kgetc
                0x0000000000101a52                kprintf
 .text          0x0000000000101a70       0x5f binaries/main.o
                0x0000000000101a70                main
 .text          0x0000000000101acf       0x99 binaries/mark.o
                0x0000000000101acf                markinit
                0x0000000000101af0                mark
 .text          0x0000000000101b68      0x1ff binaries/meminit.o
                0x0000000000101b68                meminit
                0x0000000000101cf7                setsegs
 .text          0x0000000000101d67      0x122 binaries/mkbufpool.o
                0x0000000000101d67                mkbufpool
 .text          0x0000000000101e89       0x63 binaries/newqueue.o
                0x0000000000101e89                newqueue
 .text          0x0000000000101eec       0x5c binaries/open.o
                0x0000000000101eec                open
 .text          0x0000000000101f48       0x20 binaries/panic.o
                0x0000000000101f48                panic
 .text          0x0000000000101f68      0x282 binaries/pci.o
                0x0000000000101f68                pci_init
                0x0000000000101f72                find_pci_device
                0x0000000000102031                pci_read_config_byte
                0x000000000010206f                pci_read_config_word
                0x00000000001020af                pci_read_config_dword
                0x00000000001020ed                pci_write_config_byte
                0x0000000000102129                pci_write_config_word
                0x0000000000102166                pci_write_config_dword
                0x00000000001021a2                pci_get_dev_mmio_base_addr
 .text          0x00000000001021ea       0x50 binaries/platinit.o
                0x00000000001021ea                platinit
 .text          0x000000000010223a       0xa9 binaries/ptclear.o
                0x000000000010223a                _ptclear
 .text          0x00000000001022e3       0x85 binaries/ptcount.o
                0x00000000001022e3                ptcount
 .text          0x0000000000102368       0xfe binaries/ptcreate.o
                0x0000000000102368                ptcreate
 .text          0x0000000000102466       0x63 binaries/ptdelete.o
                0x0000000000102466                ptdelete
 .text          0x00000000001024c9       0x91 binaries/ptinit.o
                0x00000000001024c9                ptinit
 .text          0x000000000010255a       0xf5 binaries/ptrecv.o
                0x000000000010255a                ptrecv
 .text          0x000000000010264f       0x66 binaries/ptreset.o
                0x000000000010264f                ptreset
 .text          0x00000000001026b5      0x115 binaries/ptsend.o
                0x00000000001026b5                ptsend
 .text          0x00000000001027ca       0x64 binaries/putc.o
                0x00000000001027ca                putc
 .text          0x000000000010282e       0xb3 binaries/quark_irq.o
                0x000000000010282e                quark_irq_routing
 .text          0x00000000001028e1      0x19a binaries/quark_pdat.o
                0x00000000001028e1                get_quark_pdat_entry_data_by_id
                0x00000000001029ab                get_quark_pdat_entry_data_by_desc
 .text          0x0000000000102a7b       0xae binaries/queue.o
                0x0000000000102a7b                enqueue
                0x0000000000102ade                dequeue
 .text          0x0000000000102b29       0x5c binaries/read.o
                0x0000000000102b29                read
 .text          0x0000000000102b85       0x61 binaries/ready.o
                0x0000000000102b85                ready
 .text          0x0000000000102be6       0x5a binaries/receive.o
                0x0000000000102be6                receive
 .text          0x0000000000102c40       0x42 binaries/recvclr.o
                0x0000000000102c40                recvclr
 .text          0x0000000000102c82       0xad binaries/recvtime.o
                0x0000000000102c82                recvtime
 .text          0x0000000000102d2f      0x159 binaries/resched.o
                0x0000000000102d2f                resched
                0x0000000000102e16                resched_cntl
 .text          0x0000000000102e88       0x7e binaries/resume.o
                0x0000000000102e88                resume
 .text          0x0000000000102f06       0x59 binaries/seek.o
                0x0000000000102f06                seek
 .text          0x0000000000102f5f       0x51 binaries/semcount.o
                0x0000000000102f5f                semcount
 .text          0x0000000000102fb0       0x93 binaries/semcreate.o
                0x0000000000102fb0                semcreate
 .text          0x0000000000103043       0xd1 binaries/semdelete.o
                0x0000000000103043                semdelete
 .text          0x0000000000103114       0xa8 binaries/semreset.o
                0x0000000000103114                semreset
 .text          0x00000000001031bc       0xb3 binaries/send.o
                0x00000000001031bc                send
 .text          0x000000000010326f       0x95 binaries/signal.o
                0x000000000010326f                signal
 .text          0x0000000000103304       0xc2 binaries/signaln.o
                0x0000000000103304                signaln
 .text          0x00000000001033c6       0xbd binaries/sleep.o
                0x00000000001033c6                sleepms
                0x000000000010344d                sleep
 .text          0x0000000000103483      0x17c binaries/stacktrace.o
                0x0000000000103483                stacktrace
 .text          0x00000000001035ff       0xac binaries/suspend.o
                0x00000000001035ff                suspend
 .text          0x00000000001036ab       0x91 binaries/unsleep.o
                0x00000000001036ab                unsleep
 .text          0x000000000010373c       0x19 binaries/userret.o
                0x000000000010373c                userret
 .text          0x0000000000103755       0xac binaries/wait.o
                0x0000000000103755                wait
 .text          0x0000000000103801       0x71 binaries/wakeup.o
                0x0000000000103801                wakeup
 .text          0x0000000000103872       0x5c binaries/write.o
                0x0000000000103872                write
 .text          0x00000000001038ce       0x1a binaries/xdone.o
                0x00000000001038ce                xdone
 .text          0x00000000001038e8       0x26 binaries/yield.o
                0x00000000001038e8                yield
 .text          0x000000000010390e       0x20 binaries/app1.o
                0x000000000010390e                app1
 .text          0x000000000010392e       0x72 binaries/app2.o
                0x000000000010392e                app2
 .text          0x00000000001039a0       0x57 binaries/app3.o
                0x00000000001039a0                app3
 .text          0x00000000001039f7       0x2b binaries/getppid.o
                0x00000000001039f7                getppid
 .text          0x0000000000103a22       0x2c binaries/getpstate.o
                0x0000000000103a22                getpstate
 .text          0x0000000000103a4e       0x2d binaries/mywelcomemsg.o
                0x0000000000103a4e                mywelcomemsg
 .text          0x0000000000103a7b        0xe binaries/host2netlb.o
                0x0000000000103a7b                host2netlb
 .text          0x0000000000103a89       0x23 binaries/host2netlc.o
                0x0000000000103a89                host2netlc
 .text          0x0000000000103aac      0x10a binaries/prntsegaddr.o
                0x0000000000103aac                doit
                0x0000000000103aea                print_size
                0x0000000000103b09                prntsegaddr
 .text          0x0000000000103bb6       0xa3 binaries/stackdepth.o
                0x0000000000103bb6                stackdepth
 .text          0x0000000000103c59       0x30 binaries/stacktop.o
                0x0000000000103c59                stacktop
 .text          0x0000000000103c89       0xa8 binaries/myappA.o
                0x0000000000103c89                myfuncA
                0x0000000000103ca5                myappA
 .text          0x0000000000103d31       0x60 binaries/myhacker.o
                0x0000000000103d31                myhacker
 .text          0x0000000000103d91       0x80 binaries/myvictim.o
                0x0000000000103d91                victim_sleeper
                0x0000000000103dcb                myvictim
 .text          0x0000000000103e11       0x5c binaries/myhackermalware.o
                0x0000000000103e11                myhackermalware
 .text          0x0000000000103e6d       0x89 binaries/lab2q3t1.o
                0x0000000000103e6d                slow_add
                0x0000000000103eae                lab2q3t1
 .text          0x0000000000103ef6       0x11 binaries/abs.o
                0x0000000000103ef6                abs
 .text          0x0000000000103f07       0x84 binaries/atoi.o
                0x0000000000103f07                atoi
 .text          0x0000000000103f8b       0x84 binaries/atol.o
                0x0000000000103f8b                atol
 .text          0x000000000010400f       0x1a binaries/bzero.o
                0x000000000010400f                bzero
 .text          0x0000000000104029        0x0 binaries/ctype_.o
 .text          0x0000000000104029      0x6bf binaries/doprnt.o
                0x000000000010417c                _doprnt
 .text          0x00000000001046e8      0x5f2 binaries/doscan.o
                0x00000000001046e8                _doscan
 .text          0x0000000000104cda      0x64e binaries/fdoprnt.o
                0x0000000000104d5f                _fdoprnt
 .text          0x0000000000105328       0x1c binaries/fgetc.o
                0x0000000000105328                fgetc
 .text          0x0000000000105344       0x61 binaries/fgets.o
                0x0000000000105344                fgets
 .text          0x00000000001053a5       0x21 binaries/fprintf.o
                0x00000000001053a5                fprintf
 .text          0x00000000001053c6       0x27 binaries/fputc.o
                0x00000000001053c6                fputc
 .text          0x00000000001053ed       0x3a binaries/fputs.o
                0x00000000001053ed                fputs
 .text          0x0000000000105427       0x6a binaries/fscanf.o
                0x0000000000105465                fscanf
 .text          0x0000000000105491       0x1d binaries/getchar.o
                0x0000000000105491                getchar
 .text          0x00000000001054ae       0x11 binaries/labs.o
                0x00000000001054ae                labs
 .text          0x00000000001054bf       0x36 binaries/memchr.o
                0x00000000001054bf                memchr
 .text          0x00000000001054f5       0x4a binaries/memcmp.o
                0x00000000001054f5                memcmp
 .text          0x000000000010553f       0x26 binaries/memcpy.o
                0x000000000010553f                memcpy
 .text          0x0000000000105565       0x1f binaries/memset.o
                0x0000000000105565                memset
 .text          0x0000000000105584       0x2e binaries/printf.o
                0x0000000000105584                printf
 .text          0x00000000001055b2       0x20 binaries/putchar.o
                0x00000000001055b2                putchar
 .text          0x00000000001055d2      0x1cc binaries/qsort.o
                0x0000000000105776                qsort
 .text          0x000000000010579e       0x4c binaries/rand.o
                0x000000000010579e                srand
                0x00000000001057ab                rand
 .text          0x00000000001057ea       0x48 binaries/sprintf.o
                0x0000000000105803                sprintf
 .text          0x0000000000105832       0x5a binaries/sscanf.o
                0x0000000000105862                sscanf
 .text          0x000000000010588c       0x2f binaries/strchr.o
                0x000000000010588c                strchr
 .text          0x00000000001058bb       0x45 binaries/strcmp.o
                0x00000000001058bb                strcmp
 .text          0x0000000000105900       0x1c binaries/strcpy.o
                0x0000000000105900                strcpy
 .text          0x000000000010591c       0x20 binaries/strlen.o
                0x000000000010591c                strlen
 .text          0x000000000010593c       0x3d binaries/strncat.o
                0x000000000010593c                strncat
 .text          0x0000000000105979       0x3b binaries/strncmp.o
                0x0000000000105979                strncmp
 .text          0x00000000001059b4       0x59 binaries/strncpy.o
                0x00000000001059b4                strncpy
 .text          0x0000000000105a0d       0x38 binaries/strnlen.o
                0x0000000000105a0d                strnlen
 .text          0x0000000000105a45       0x32 binaries/strrchr.o
                0x0000000000105a45                strrchr
 .text          0x0000000000105a77       0x68 binaries/strstr.o
                0x0000000000105a77                strstr
 .text          0x0000000000105adf      0x112 binaries/ttycontrol.o
                0x0000000000105adf                ttycontrol
 .text          0x0000000000105bf1       0xb0 binaries/ttygetc.o
                0x0000000000105bf1                ttygetc
 .text          0x0000000000105ca1      0x4a3 binaries/ttyhandle_in.o
                0x0000000000105d65                ttyhandle_in
 .text          0x0000000000106144      0x178 binaries/ttyhandle_out.o
                0x0000000000106144                ttyhandle_out
 .text          0x00000000001062bc       0x85 binaries/ttyhandler.o
                0x00000000001062bc                ttyhandler
 .text          0x0000000000106341      0x15d binaries/ttyinit.o
                0x0000000000106341                ttyinit
 .text          0x000000000010649e        0xf binaries/ttykickout.o
                0x000000000010649e                ttykickout
 .text          0x00000000001064ad       0xb2 binaries/ttyputc.o
                0x00000000001064ad                ttyputc
 .text          0x000000000010655f       0xff binaries/ttyread.o
                0x000000000010655f                ttyread
 .text          0x000000000010665e       0x4d binaries/ttywrite.o
                0x000000000010665e                ttywrite
 .text          0x00000000001066ab      0x129 binaries/mount.o
                0x00000000001066ab                namlen
                0x00000000001066e7                mount
 .text          0x00000000001067d4      0x1c4 binaries/naminit.o
                0x00000000001067d4                naminit
 .text          0x0000000000106998      0x1fe binaries/nammap.o
                0x0000000000106998                namrepl
                0x0000000000106abb                namcpy
                0x0000000000106b09                nammap
 .text          0x0000000000106b96       0x44 binaries/namopen.o
                0x0000000000106b96                namopen
 .text          0x0000000000106bda       0xd4 binaries/colon2mac.o
                0x0000000000106bda                colon2mac
 .text          0x0000000000106cae       0x7d binaries/ethcontrol.o
                0x0000000000106cae                ethcontrol
 .text          0x0000000000106d2b      0x17e binaries/ethhandler.o
                0x0000000000106d2b                ethhandler
 .text          0x0000000000106ea9      0x548 binaries/ethinit.o
                0x0000000000106ea9                eth_phy_read
                0x0000000000106ee9                eth_phy_write
                0x0000000000106f2a                eth_phy_reset
                0x0000000000107004                ethinit
 .text          0x00000000001073f1      0x107 binaries/ethmcast.o
                0x00000000001073f1                ethmcast_add
                0x000000000010743d                ethmcast_remove
 .text          0x00000000001074f8      0x172 binaries/ethread.o
                0x00000000001074f8                ethread
 .text          0x000000000010766a       0xc1 binaries/ethwrite.o
                0x000000000010766a                ethwrite
 .text          0x000000000010772b       0x68 binaries/rdsbufalloc.o
                0x000000000010772b                rdsbufalloc
 .text          0x0000000000107793       0xd6 binaries/rdsclose.o
                0x0000000000107793                rdsclose
 .text          0x0000000000107869      0x1df binaries/rdscomm.o
                0x0000000000107869                rdscomm
 .text          0x0000000000107a48      0x1c4 binaries/rdscontrol.o
                0x0000000000107a48                rdscontrol
 .text          0x0000000000107c0c      0x1f7 binaries/rdsinit.o
                0x0000000000107c0c                rdsinit
 .text          0x0000000000107e03      0x199 binaries/rdsopen.o
                0x0000000000107e03                rdsopen
 .text          0x0000000000107f9c      0x2c5 binaries/rdsprocess.o
                0x0000000000107f9c                rdsprocess
 .text          0x0000000000108261      0x1d8 binaries/rdsread.o
                0x0000000000108261                rdsread
 .text          0x0000000000108439      0x1ae binaries/rdswrite.o
                0x0000000000108439                rdswrite
 .text          0x00000000001085e7        0xa binaries/ramclose.o
                0x00000000001085e7                ramclose
 .text          0x00000000001085f1       0x35 binaries/raminit.o
                0x00000000001085f1                raminit
 .text          0x0000000000108626        0xa binaries/ramopen.o
                0x0000000000108626                ramopen
 .text          0x0000000000108630       0x26 binaries/ramread.o
                0x0000000000108630                ramread
 .text          0x0000000000108656       0x26 binaries/ramwrite.o
                0x0000000000108656                ramwrite
 .text          0x000000000010867c       0x87 binaries/lfdballoc.o
                0x000000000010867c                lfdballoc
 .text          0x0000000000108703       0x49 binaries/lfdbfree.o
                0x0000000000108703                lfdbfree
 .text          0x000000000010874c       0xa1 binaries/lfflush.o
                0x000000000010874c                lfflush
 .text          0x00000000001087ed       0x82 binaries/lfgetmode.o
                0x00000000001087ed                lfgetmode
 .text          0x000000000010886f       0x60 binaries/lfiballoc.o
                0x000000000010886f                lfiballoc
 .text          0x00000000001088cf       0x27 binaries/lfibclear.o
                0x00000000001088cf                lfibclear
 .text          0x00000000001088f6       0x6c binaries/lfibget.o
                0x00000000001088f6                lfibget
 .text          0x0000000000108962       0x88 binaries/lfibput.o
                0x0000000000108962                lfibput
 .text          0x00000000001089ea       0xa4 binaries/lflclose.o
                0x00000000001089ea                lflclose
 .text          0x0000000000108a8e       0xc2 binaries/lflcontrol.o
                0x0000000000108a8e                lflcontrol
 .text          0x0000000000108b50       0xfd binaries/lflgetc.o
                0x0000000000108b50                lflgetc
 .text          0x0000000000108c4d       0xe7 binaries/lflinit.o
                0x0000000000108c4d                lflinit
 .text          0x0000000000108d34      0x12f binaries/lflputc.o
                0x0000000000108d34                lflputc
 .text          0x0000000000108e63       0x6b binaries/lflread.o
                0x0000000000108e63                lflread
 .text          0x0000000000108ece       0xbd binaries/lflseek.o
                0x0000000000108ece                lflseek
 .text          0x0000000000108f8b       0x52 binaries/lflwrite.o
                0x0000000000108f8b                lflwrite
 .text          0x0000000000108fdd      0x114 binaries/lfsckfmt.o
                0x0000000000108fdd                lfsckfmt
 .text          0x00000000001090f1      0x1e6 binaries/lfscreate.o
                0x00000000001090f1                lfscreate
 .text          0x00000000001092d7      0x1b1 binaries/lfsetup.o
                0x00000000001092d7                lfsetup
 .text          0x0000000000109488       0x45 binaries/lfsinit.o
                0x0000000000109488                lfsinit
 .text          0x00000000001094cd      0x302 binaries/lfsopen.o
                0x00000000001094cd                lfsopen
 .text          0x00000000001097cf      0x112 binaries/lftruncate.o
                0x00000000001097cf                lftruncate
 .text          0x00000000001098e1       0x69 binaries/rflclose.o
                0x00000000001098e1                rflclose
 .text          0x000000000010994a       0x29 binaries/rflgetc.o
                0x000000000010994a                rflgetc
 .text          0x0000000000109973       0x6c binaries/rflinit.o
                0x0000000000109973                rflinit
 .text          0x00000000001099df       0x29 binaries/rflputc.o
                0x00000000001099df                rflputc
 .text          0x0000000000109a08      0x2b6 binaries/rflread.o
                0x0000000000109a08                rflread
 .text          0x0000000000109cbe       0x68 binaries/rflseek.o
                0x0000000000109cbe                rflseek
 .text          0x0000000000109d26      0x2fa binaries/rflwrite.o
                0x0000000000109d26                rflwrite
 .text          0x000000000010a020      0x17d binaries/rfscomm.o
                0x000000000010a020                rfscomm
 .text          0x000000000010a19d      0x22b binaries/rfscontrol.o
                0x000000000010a19d                rfscontrol
 .text          0x000000000010a3c8       0x82 binaries/rfsgetmode.o
                0x000000000010a3c8                rfsgetmode
 .text          0x000000000010a44a       0x7e binaries/rfsinit.o
                0x000000000010a44a                rfsinit
 .text          0x000000000010a4c8       0xad binaries/rfsndmsg.o
                0x000000000010a4c8                rfsndmsg
 .text          0x000000000010a575      0x243 binaries/rfsopen.o
                0x000000000010a575                rfsopen
 .text          0x000000000010a7b8      0x626 binaries/arp.o
                0x000000000010a7b8                arp_init
                0x000000000010a7d4                arp_alloc
                0x000000000010a87b                arp_ntoh
                0x000000000010a8e8                arp_hton
                0x000000000010a955                arp_resolve
                0x000000000010aba6                arp_in
 .text          0x000000000010adde      0x5ed binaries/dhcp.o
                0x000000000010adde                dhcp_get_opt_val
                0x000000000010ae32                dhcp_bld_bootp_msg
                0x000000000010af04                dhcp_bld_disc
                0x000000000010af56                dhcp_bld_req
                0x000000000010aff1                getlocalip
 .text          0x000000000010b3cb       0xda binaries/dot2ip.o
                0x000000000010b3cb                dot2ip
 .text          0x000000000010b4a5      0x38c binaries/hexdump.o
                0x000000000010b4a5                hexdump
                0x000000000010b5ff                hexadump
 .text          0x000000000010b831      0x6f6 binaries/icmp.o
                0x000000000010b831                icmp_init
                0x000000000010b84d                icmp_register
                0x000000000010b90b                icmp_recv
                0x000000000010baae                icmp_mkpkt
                0x000000000010bb7b                icmp_in
                0x000000000010bd15                icmp_send
                0x000000000010bd84                icmp_release
                0x000000000010be9f                icmp_cksum
                0x000000000010bef9                icmp_hton
                0x000000000010bf10                icmp_ntoh
 .text          0x000000000010bf27      0x5e2 binaries/ip.o
                0x000000000010bf27                ip_local
                0x000000000010bf67                ipcksum
                0x000000000010bfbd                ip_ntoh
                0x000000000010c02a                ip_in
                0x000000000010c14f                ip_hton
                0x000000000010c1bc                ip_out
                0x000000000010c272                ip_send
                0x000000000010c37d                ipout
                0x000000000010c470                ip_enqueue
 .text          0x000000000010c509      0x1b2 binaries/net.o
                0x000000000010c509                net_init
                0x000000000010c600                eth_hton
                0x000000000010c60d                eth_ntoh
                0x000000000010c61a                netin
 .text          0x000000000010c6bb       0xb9 binaries/netstart.o
                0x000000000010c6bb                netstart
 .text          0x000000000010c774      0xa30 binaries/pdump.o
                0x000000000010c774                pdump
                0x000000000010cd59                pdumph
 .text          0x000000000010d1a4      0x5b8 binaries/tftp.o
                0x000000000010d1a4                tftp_send1
                0x000000000010d2b8                tftpget_mb
                0x000000000010d739                tftpget
 .text          0x000000000010d75c      0xa17 binaries/udp.o
                0x000000000010d75c                udp_init
                0x000000000010d79d                udp_in
                0x000000000010d8c6                udp_register
                0x000000000010d9d7                udp_recv
                0x000000000010db70                udp_recvaddr
                0x000000000010dd1d                udp_send
                0x000000000010decb                udp_sendto
                0x000000000010e034                udp_release
                0x000000000010e145                udp_ntoh
                0x000000000010e15c                udp_hton
 .text          0x000000000010e173      0x10e binaries/addargs.o
                0x000000000010e173                addargs
 .text          0x000000000010e281      0x1db binaries/lexan.o
                0x000000000010e281                lexan
 .text          0x000000000010e45c      0x644 binaries/shell.o
                0x000000000010e45c                shell
 .text          0x000000000010eaa0       0x59 binaries/xsh_argecho.o
                0x000000000010eaa0                xsh_argecho
 .text          0x000000000010eaf9      0x1fb binaries/xsh_arp.o
                0x000000000010eaf9                xsh_arp
 .text          0x000000000010ecf4      0x1db binaries/xsh_cat.o
                0x000000000010ecf4                xsh_cat
 .text          0x000000000010eecf       0x4f binaries/xsh_clear.o
                0x000000000010eecf                xsh_clear
 .text          0x000000000010ef1e      0x278 binaries/xsh_date.o
                0x000000000010ef1e                xsh_date
 .text          0x000000000010f196       0x80 binaries/xsh_devdump.o
                0x000000000010f196                xsh_devdump
 .text          0x000000000010f216       0x63 binaries/xsh_echo.o
                0x000000000010f216                xsh_echo
 .text          0x000000000010f279        0xa binaries/xsh_exit.o
                0x000000000010f279                xsh_exit
 .text          0x000000000010f283      0x323 binaries/xsh_help.o
                0x000000000010f283                xsh_help
 .text          0x000000000010f5a6      0x367 binaries/xsh_ipaddr.o
                0x000000000010f5a6                xsh_ipaddr
 .text          0x000000000010f90d      0x1aa binaries/xsh_kill.o
                0x000000000010f90d                xsh_kill
 .text          0x000000000010fab7      0x3bd binaries/xsh_memdump.o
                0x000000000010fb7d                xsh_memdump
 .text          0x000000000010fe74      0x1cc binaries/xsh_memstat.o
                0x000000000010fe74                xsh_memstat
 .text          0x0000000000110040      0x27f binaries/xsh_ping.o
                0x0000000000110040                xsh_ping
 .text          0x00000000001102bf      0x19c binaries/xsh_ps.o
                0x00000000001102bf                xsh_ps
 .text          0x000000000011045b      0x1a3 binaries/xsh_sleep.o
                0x000000000011045b                xsh_sleep
 .text          0x00000000001105fe      0x1c3 binaries/xsh_udpdump.o
                0x00000000001105fe                xsh_udpdump
 .text          0x00000000001107c1      0x3ad binaries/xsh_udpecho.o
                0x00000000001107c1                xsh_udpecho
 .text          0x0000000000110b6e      0x1fc binaries/xsh_udpeserver.o
                0x0000000000110b6e                xsh_udpeserver
 .text          0x0000000000110d6a      0x1b0 binaries/xsh_uptime.o
                0x0000000000110d6a                xsh_uptime
 .text          0x0000000000110f1a        0xe binaries/clkdisp.o
                0x0000000000110f1a                clkdisp
 .text          0x0000000000110f28       0x19 binaries/ctxsw.o
                0x0000000000110f28                ctxsw
 .text          0x0000000000110f41      0x36b binaries/intr.o
                0x0000000000110f41                disable
                0x0000000000110f4a                restore
                0x0000000000110f58                enable
                0x0000000000110f5a                pause
                0x0000000000110f61                halt
                0x0000000000110f67                spurious_irq7
                0x0000000000110f6c                spurious_irq15
                0x0000000000110f7b                _Xint0
                0x0000000000110f86                _Xint1
                0x0000000000110f91                _Xint2
                0x0000000000110f9c                _Xint3
                0x0000000000110fa7                _Xint4
                0x0000000000110fb2                _Xint5
                0x0000000000110fbd                _Xint6
                0x0000000000110fc8                _Xint7
                0x0000000000110fd3                _Xint8
                0x0000000000110fde                _Xint9
                0x0000000000110fe9                _Xint10
                0x0000000000110ff4                _Xint11
                0x0000000000111002                _Xint12
                0x0000000000111010                _Xint13
                0x000000000011101e                _Xint14
                0x000000000011102c                _Xint15
                0x000000000011103a                _Xint16
                0x0000000000111048                _Xint17
                0x0000000000111056                _Xint18
                0x0000000000111064                _Xint19
                0x0000000000111072                _Xint20
                0x0000000000111080                _Xint21
                0x000000000011108e                _Xint22
                0x000000000011109c                _Xint23
                0x00000000001110aa                _Xint24
                0x00000000001110b8                _Xint25
                0x00000000001110c6                _Xint26
                0x00000000001110d4                _Xint27
                0x00000000001110e2                _Xint28
                0x00000000001110f0                _Xint29
                0x00000000001110fe                _Xint30
                0x000000000011110c                _Xint31
                0x000000000011111a                _Xint32
                0x0000000000111128                _Xint33
                0x0000000000111136                _Xint34
                0x0000000000111144                _Xint35
                0x0000000000111152                _Xint36
                0x0000000000111160                _Xint37
                0x000000000011116e                _Xint38
                0x000000000011117c                _Xint39
                0x000000000011118a                _Xint40
                0x0000000000111198                _Xint41
                0x00000000001111a6                _Xint42
                0x00000000001111b4                _Xint43
                0x00000000001111c2                _Xint44
                0x00000000001111d0                _Xint45
                0x00000000001111de                _Xint46
                0x00000000001111ec                defevec
 .text          0x00000000001112ac        0xa binaries/host2netla.o
                0x00000000001112ac                host2netla
 .text          0x00000000001112b6        0xf binaries/ttydispatch.o
                0x00000000001112b6                ttydispatch
 .text          0x00000000001112c5       0x13 binaries/ethdispatch.o
                0x00000000001112c5                ethdispatch
 *(.rodata .rodata.*)
 .rodata.str1.1
                0x00000000001112d8       0x54 binaries/ascdate.o
 .rodata.str1.4
                0x000000000011132c       0x22 binaries/ascdate.o
 .rodata.str1.1
                0x000000000011134e       0x5f binaries/conf.o
 *fill*         0x00000000001113ad        0x3 
 .rodata.str1.4
                0x00000000001113b0       0x4f binaries/early_imr.o
 *fill*         0x00000000001113ff        0x1 
 .rodata        0x0000000000111400       0x33 binaries/early_imr.o
 .rodata.str1.1
                0x0000000000111433      0x20c binaries/evec.o
 *fill*         0x000000000011163f        0x1 
 .rodata.str1.4
                0x0000000000111640       0x23 binaries/evec.o
 .rodata.str1.1
                0x0000000000111663        0xb binaries/getutime.o
 *fill*         0x000000000011166e        0x2 
 .rodata.str1.4
                0x0000000000111670       0x54 binaries/getutime.o
 .rodata.str1.1
                0x00000000001116c4       0x63 binaries/initialize.o
                                         0x67 (size before relaxing)
 *fill*         0x0000000000111727        0x1 
 .rodata.str1.4
                0x0000000000111728       0xd0 binaries/initialize.o
 .rodata        0x00000000001117f8       0x20 binaries/kill.o
 .rodata.str1.4
                0x0000000000111818       0x22 binaries/main.o
 .rodata.str1.1
                0x000000000011183a        0x6 binaries/main.o
 .rodata.str1.4
                0x0000000000111840       0x23 binaries/meminit.o
 .rodata.str1.1
                0x0000000000111863       0x1b binaries/meminit.o
 .rodata.str1.1
                0x000000000011187e        0xf binaries/panic.o
 .rodata.str1.1
                0x000000000011188d       0x1c binaries/ptinit.o
 *fill*         0x00000000001118a9        0x3 
 .rodata.str1.4
                0x00000000001118ac       0x25 binaries/ptsend.o
 .rodata.str1.1
                0x00000000001118d1       0x22 binaries/quark_pdat.o
 *fill*         0x00000000001118f3        0x1 
 .rodata.str1.4
                0x00000000001118f4       0x63 binaries/stacktrace.o
 .rodata.str1.1
                0x0000000000111957       0x52 binaries/stacktrace.o
 *fill*         0x00000000001119a9        0x3 
 .rodata.str1.4
                0x00000000001119ac       0x27 binaries/xdone.o
 .rodata.str1.1
                0x00000000001119d3       0x1d binaries/app1.o
 .rodata.str1.1
                0x00000000001119f0       0x50 binaries/app2.o
 .rodata.str1.1
                0x0000000000111a40       0x2f binaries/app3.o
 *fill*         0x0000000000111a6f        0x1 
 .rodata.str1.4
                0x0000000000111a70       0x2b binaries/app3.o
 *fill*         0x0000000000111a9b        0x1 
 .rodata.str1.4
                0x0000000000111a9c       0x65 binaries/mywelcomemsg.o
 .rodata.str1.1
                0x0000000000111b01       0x7e binaries/prntsegaddr.o
                                         0x80 (size before relaxing)
 *fill*         0x0000000000111b7f        0x1 
 .rodata.str1.4
                0x0000000000111b80       0xab binaries/stackdepth.o
 .rodata.str1.1
                0x0000000000111c2b       0x3b binaries/stacktop.o
 .rodata.str1.1
                0x0000000000111c66       0x47 binaries/myappA.o
 *fill*         0x0000000000111cad        0x3 
 .rodata.str1.4
                0x0000000000111cb0       0x47 binaries/myappA.o
 .rodata.str1.1
                0x0000000000111cf7       0x36 binaries/myhacker.o
 *fill*         0x0000000000111d2d        0x3 
 .rodata.str1.4
                0x0000000000111d30       0x2d binaries/myhacker.o
 .rodata.str1.1
                0x0000000000111d5d       0x4e binaries/myvictim.o
 *fill*         0x0000000000111dab        0x1 
 .rodata.str1.4
                0x0000000000111dac       0x45 binaries/myvictim.o
 *fill*         0x0000000000111df1        0x3 
 .rodata.str1.4
                0x0000000000111df4       0x8a binaries/myhackermalware.o
 *fill*         0x0000000000111e7e        0x2 
 .rodata.str1.4
                0x0000000000111e80       0x21 binaries/lab2q3t1.o
 .rodata.str1.1
                0x0000000000111ea1        0x9 binaries/lab2q3t1.o
 *fill*         0x0000000000111eaa       0x16 
 .rodata        0x0000000000111ec0       0x81 binaries/ctype_.o
                0x0000000000111ec0                _ctype_
 .rodata.str1.1
                0x0000000000111f41       0x29 binaries/doprnt.o
 *fill*         0x0000000000111f6a        0x2 
 .rodata        0x0000000000111f6c       0xc4 binaries/doprnt.o
 .rodata        0x0000000000112030       0x98 binaries/doscan.o
 .rodata.str1.1
                0x00000000001120c8       0x29 binaries/fdoprnt.o
 .rodata        0x00000000001120c8       0x84 binaries/fdoprnt.o
 .rodata        0x000000000011214c       0x20 binaries/ttycontrol.o
 .rodata.str1.4
                0x000000000011216c       0x4c binaries/naminit.o
 .rodata.str1.1
                0x00000000001121b8       0x32 binaries/naminit.o
                                         0x35 (size before relaxing)
 .rodata.str1.1
                0x00000000001121ea       0x15 binaries/ethinit.o
 *fill*         0x00000000001121ff        0x1 
 .rodata.str1.4
                0x0000000000112200       0x2e binaries/ethinit.o
 *fill*         0x000000000011222e        0x2 
 .rodata.str1.4
                0x0000000000112230       0x2c binaries/rdsbufalloc.o
 .rodata.str1.4
                0x000000000011225c       0x76 binaries/rdscomm.o
 *fill*         0x00000000001122d2        0x2 
 .rodata.str1.4
                0x00000000001122d4       0x48 binaries/rdscontrol.o
 .rodata.str1.4
                0x000000000011231c       0x7e binaries/rdsinit.o
 .rodata.str1.1
                0x000000000011239a       0x18 binaries/rdsinit.o
 *fill*         0x00000000001123b2        0x2 
 .rodata.str1.4
                0x00000000001123b4       0x22 binaries/rdsopen.o
 *fill*         0x00000000001123d6        0x2 
 .rodata.str1.4
                0x00000000001123d8       0x4d binaries/rdsprocess.o
 .rodata.str1.1
                0x0000000000112425        0x9 binaries/raminit.o
 .rodata.str1.1
                0x000000000011242e       0x13 binaries/lfdballoc.o
 *fill*         0x0000000000112441        0x3 
 .rodata.str1.4
                0x0000000000112444       0x23 binaries/lfdballoc.o
 .rodata.str1.1
                0x0000000000112467       0x14 binaries/lfiballoc.o
 *fill*         0x000000000011247b        0x1 
 .rodata.str1.4
                0x000000000011247c       0x23 binaries/lflcontrol.o
 .rodata.str1.1
                0x000000000011249f       0x64 binaries/lfsckfmt.o
 *fill*         0x0000000000112503        0x1 
 .rodata.str1.4
                0x0000000000112504       0x51 binaries/lfsckfmt.o
 *fill*         0x0000000000112555        0x3 
 .rodata.str1.4
                0x0000000000112558       0x21 binaries/rflread.o
 .rodata.str1.4
                0x0000000000112579       0x21 binaries/rflwrite.o
 *fill*         0x0000000000112579        0x3 
 .rodata.str1.4
                0x000000000011257c       0x75 binaries/rfscomm.o
 *fill*         0x00000000001125f1        0x3 
 .rodata.str1.4
                0x00000000001125f4       0x23 binaries/rfscontrol.o
 *fill*         0x0000000000112617        0x1 
 .rodata        0x0000000000112618       0x18 binaries/rfscontrol.o
 .rodata.str1.1
                0x0000000000112630       0x10 binaries/rfsinit.o
 .rodata.str1.4
                0x0000000000112630       0x57 binaries/rfsinit.o
 *fill*         0x0000000000112687        0x1 
 .rodata.str1.4
                0x0000000000112688       0x2a binaries/rfsndmsg.o
 .rodata.str1.4
                0x00000000001126b2       0x22 binaries/rfsopen.o
 .rodata.str1.1
                0x00000000001126b2       0x19 binaries/arp.o
 *fill*         0x00000000001126cb        0x1 
 .rodata.str1.4
                0x00000000001126cc       0x21 binaries/arp.o
 *fill*         0x00000000001126ed        0x3 
 .rodata.str1.4
                0x00000000001126f0       0xa6 binaries/dhcp.o
 .rodata.str1.1
                0x0000000000112796       0x4a binaries/dhcp.o
 .rodata.str1.1
                0x00000000001127e0       0x5a binaries/hexdump.o
                                         0x61 (size before relaxing)
 *fill*         0x000000000011283a        0x2 
 .rodata.str1.4
                0x000000000011283c       0x67 binaries/hexdump.o
 *fill*         0x00000000001128a3        0x1 
 .rodata.str1.4
                0x00000000001128a4       0x29 binaries/icmp.o
 .rodata.str1.1
                0x00000000001128cd       0x4e binaries/ip.o
 *fill*         0x000000000011291b        0x1 
 .rodata.str1.4
                0x000000000011291c       0x20 binaries/ip.o
 .rodata.str1.4
                0x000000000011293c       0x28 binaries/net.o
 .rodata.str1.1
                0x0000000000112964       0x27 binaries/net.o
 *fill*         0x000000000011298b        0x1 
 .rodata.str1.4
                0x000000000011298c       0xcf binaries/netstart.o
 .rodata.str1.1
                0x0000000000112a5b      0x141 binaries/pdump.o
                                        0x14b (size before relaxing)
 .rodata.str1.4
                0x0000000000112b9c      0x126 binaries/pdump.o
 *fill*         0x0000000000112cc2        0x2 
 .rodata.str1.4
                0x0000000000112cc4      0x148 binaries/tftp.o
 .rodata.str1.1
                0x0000000000112e0c        0x6 binaries/tftp.o
                                          0xa (size before relaxing)
 .rodata.str1.1
                0x0000000000112e12       0xe3 binaries/shell.o
                                         0xff (size before relaxing)
 *fill*         0x0000000000112ef5        0x3 
 .rodata.str1.4
                0x0000000000112ef8      0x1c4 binaries/shell.o
 *fill*         0x00000000001130bc        0x4 
 .rodata        0x00000000001130c0       0xfc binaries/shell.o
                0x00000000001130c0                cmdtab
 .rodata.str1.1
                0x00000000001131bc       0x26 binaries/xsh_argecho.o
                                         0x28 (size before relaxing)
 .rodata.str1.1
                0x00000000001131e2       0x70 binaries/xsh_arp.o
                                         0x72 (size before relaxing)
 *fill*         0x0000000000113252        0x2 
 .rodata.str1.4
                0x0000000000113254       0xb4 binaries/xsh_arp.o
 .rodata.str1.1
                0x0000000000113308       0x2d binaries/xsh_cat.o
                                         0x4f (size before relaxing)
 *fill*         0x0000000000113335        0x3 
 .rodata.str1.4
                0x0000000000113338       0x52 binaries/xsh_cat.o
                                         0x79 (size before relaxing)
 .rodata.str1.1
                0x000000000011338a       0x15 binaries/xsh_clear.o
 .rodata.str1.1
                0x000000000011339f       0x46 binaries/xsh_date.o
                                         0x5f (size before relaxing)
 *fill*         0x00000000001133e5        0x3 
 .rodata.str1.4
                0x00000000001133e8      0x163 binaries/xsh_date.o
 .rodata.str1.1
                0x000000000011354b       0x5d binaries/xsh_devdump.o
 .rodata.str1.1
                0x00000000001135a8        0x4 binaries/xsh_echo.o
                                          0x9 (size before relaxing)
 .rodata.str1.1
                0x00000000001135ac       0x65 binaries/xsh_help.o
                                         0xa3 (size before relaxing)
 *fill*         0x0000000000113611        0x3 
 .rodata.str1.4
                0x0000000000113614       0x7c binaries/xsh_help.o
                                         0xc6 (size before relaxing)
 .rodata.str1.1
                0x0000000000113690       0x9c binaries/xsh_ipaddr.o
                                         0xf8 (size before relaxing)
 .rodata.str1.4
                0x000000000011372c       0x4d binaries/xsh_ipaddr.o
                                         0x99 (size before relaxing)
 .rodata.str1.1
                0x0000000000113779       0x78 binaries/xsh_kill.o
                                         0x97 (size before relaxing)
 *fill*         0x00000000001137f1        0x3 
 .rodata.str1.4
                0x00000000001137f4       0x4a binaries/xsh_kill.o
                                         0x96 (size before relaxing)
 .rodata.str1.1
                0x000000000011383e       0x84 binaries/xsh_memdump.o
                                         0xa8 (size before relaxing)
 *fill*         0x00000000001138c2        0x2 
 .rodata.str1.4
                0x00000000001138c4      0x15a binaries/xsh_memdump.o
                                        0x1aa (size before relaxing)
 .rodata.str1.1
                0x0000000000113a1e       0x40 binaries/xsh_memstat.o
                                         0x79 (size before relaxing)
 *fill*         0x0000000000113a5e        0x2 
 .rodata.str1.4
                0x0000000000113a60      0x187 binaries/xsh_memstat.o
                                        0x1af (size before relaxing)
 .rodata.str1.1
                0x0000000000113be7       0x90 binaries/xsh_ping.o
                                         0xaf (size before relaxing)
 *fill*         0x0000000000113c77        0x1 
 .rodata.str1.4
                0x0000000000113c78       0x77 binaries/xsh_ping.o
                                         0xc6 (size before relaxing)
 .rodata.str1.1
                0x0000000000113cef       0x74 binaries/xsh_ps.o
                                         0xd5 (size before relaxing)
 *fill*         0x0000000000113d63        0x1 
 .rodata.str1.4
                0x0000000000113d64       0x80 binaries/xsh_ps.o
                                         0xd0 (size before relaxing)
 *fill*         0x0000000000113de4       0x1c 
 .rodata        0x0000000000113e00       0x20 binaries/xsh_ps.o
 .rodata.str1.1
                0x0000000000113e20       0x31 binaries/xsh_sleep.o
                                         0x72 (size before relaxing)
 *fill*         0x0000000000113e51        0x3 
 .rodata.str1.4
                0x0000000000113e54       0x2a binaries/xsh_sleep.o
                                         0x7a (size before relaxing)
 .rodata.str1.1
                0x0000000000113e7e       0x6b binaries/xsh_udpdump.o
                                         0xd2 (size before relaxing)
 *fill*         0x0000000000113ee9        0x3 
 .rodata.str1.4
                0x0000000000113eec       0x94 binaries/xsh_udpdump.o
                                         0xe4 (size before relaxing)
 .rodata.str1.1
                0x0000000000113f80       0xdb binaries/xsh_udpecho.o
                                         0xfa (size before relaxing)
 *fill*         0x000000000011405b        0x1 
 .rodata.str1.4
                0x000000000011405c       0xc7 binaries/xsh_udpecho.o
                                        0x116 (size before relaxing)
 .rodata.str1.1
                0x0000000000114123       0x66 binaries/xsh_udpeserver.o
                                         0x8f (size before relaxing)
 *fill*         0x0000000000114189        0x3 
 .rodata.str1.4
                0x000000000011418c       0x29 binaries/xsh_udpeserver.o
                                         0x9f (size before relaxing)
 .rodata.str1.1
                0x00000000001141b5       0x49 binaries/xsh_uptime.o
                                         0x8c (size before relaxing)
 *fill*         0x00000000001141fe        0x2 
 .rodata.str1.4
                0x0000000000114200       0x28 binaries/xsh_uptime.o
                                         0x76 (size before relaxing)
                0x0000000000114228                etext = ABSOLUTE (.)
                0x0000000000115000                . = ALIGN (0x1000)
 *fill*         0x0000000000114228      0xdd8 

.eh_frame       0x0000000000115000     0x3240
 .eh_frame      0x0000000000115000       0x48 binaries/ascdate.o
 .eh_frame      0x0000000000115048       0x20 binaries/bufinit.o
                                         0x38 (size before relaxing)
 .eh_frame      0x0000000000115068       0x2c binaries/chprio.o
                                         0x44 (size before relaxing)
 .eh_frame      0x0000000000115094       0x20 binaries/clkhandler.o
                                         0x38 (size before relaxing)
 .eh_frame      0x00000000001150b4       0x20 binaries/clkinit.o
                                         0x38 (size before relaxing)
 .eh_frame      0x00000000001150d4       0x28 binaries/close.o
                                         0x40 (size before relaxing)
 .eh_frame      0x00000000001150fc       0x28 binaries/control.o
                                         0x40 (size before relaxing)
 .eh_frame      0x0000000000115124       0x30 binaries/create.o
                                         0x48 (size before relaxing)
 .eh_frame      0x0000000000115154       0x94 binaries/early_imr.o
                                         0xac (size before relaxing)
 .eh_frame      0x00000000001151e8       0x94 binaries/evec.o
                                         0xac (size before relaxing)
 .eh_frame      0x000000000011527c       0x2c binaries/freebuf.o
                                         0x44 (size before relaxing)
 .eh_frame      0x00000000001152a8       0x2c binaries/freemem.o
                                         0x44 (size before relaxing)
 .eh_frame      0x00000000001152d4       0x2c binaries/getbuf.o
                                         0x44 (size before relaxing)
 .eh_frame      0x0000000000115300       0x28 binaries/getc.o
                                         0x40 (size before relaxing)
 .eh_frame      0x0000000000115328       0x2c binaries/getdev.o
                                         0x44 (size before relaxing)
 .eh_frame      0x0000000000115354       0x64 binaries/getitem.o
                                         0x7c (size before relaxing)
 .eh_frame      0x00000000001153b8       0x28 binaries/getmem.o
                                         0x40 (size before relaxing)
 .eh_frame      0x00000000001153e0       0x20 binaries/getpid.o
                                         0x38 (size before relaxing)
 .eh_frame      0x0000000000115400       0x24 binaries/getprio.o
                                         0x3c (size before relaxing)
 .eh_frame      0x0000000000115424       0x2c binaries/getstk.o
                                         0x44 (size before relaxing)
 .eh_frame      0x0000000000115450       0x20 binaries/gettime.o
                                         0x38 (size before relaxing)
 .eh_frame      0x0000000000115470       0x24 binaries/getutime.o
                                         0x3c (size before relaxing)
 .eh_frame      0x0000000000115494       0x28 binaries/init.o
                                         0x40 (size before relaxing)
 .eh_frame      0x00000000001154bc       0x5c binaries/initialize.o
                                         0x74 (size before relaxing)
 .eh_frame      0x0000000000115518       0x28 binaries/insert.o
                                         0x40 (size before relaxing)
 .eh_frame      0x0000000000115540       0x2c binaries/insertd.o
                                         0x44 (size before relaxing)
 .eh_frame      0x000000000011556c       0x20 binaries/ioerr.o
                                         0x38 (size before relaxing)
 .eh_frame      0x000000000011558c       0x20 binaries/ionull.o
                                         0x38 (size before relaxing)
 .eh_frame      0x00000000001155ac       0x30 binaries/kill.o
                                         0x48 (size before relaxing)
 .eh_frame      0x00000000001155dc       0x80 binaries/kprintf.o
                                         0x98 (size before relaxing)
 .eh_frame      0x000000000011565c       0x24 binaries/main.o
                                         0x3c (size before relaxing)
 .eh_frame      0x0000000000115680       0x44 binaries/mark.o
                                         0x5c (size before relaxing)
 .eh_frame      0x00000000001156c4       0x50 binaries/meminit.o
                                         0x68 (size before relaxing)
 .eh_frame      0x0000000000115714       0x30 binaries/mkbufpool.o
                                         0x48 (size before relaxing)
 .eh_frame      0x0000000000115744       0x20 binaries/newqueue.o
                                         0x38 (size before relaxing)
 .eh_frame      0x0000000000115764       0x28 binaries/open.o
                                         0x40 (size before relaxing)
 .eh_frame      0x000000000011578c       0x1c binaries/panic.o
                                         0x34 (size before relaxing)
 .eh_frame      0x00000000001157a8      0x12c binaries/pci.o
                                        0x144 (size before relaxing)
 .eh_frame      0x00000000001158d4       0x20 binaries/platinit.o
                                         0x38 (size before relaxing)
 .eh_frame      0x00000000001158f4       0x2c binaries/ptclear.o
                                         0x44 (size before relaxing)
 .eh_frame      0x0000000000115920       0x2c binaries/ptcount.o
                                         0x44 (size before relaxing)
 .eh_frame      0x000000000011594c       0x2c binaries/ptcreate.o
                                         0x44 (size before relaxing)
 .eh_frame      0x0000000000115978       0x28 binaries/ptdelete.o
                                         0x40 (size before relaxing)
 .eh_frame      0x00000000001159a0       0x28 binaries/ptinit.o
                                         0x40 (size before relaxing)
 .eh_frame      0x00000000001159c8       0x2c binaries/ptrecv.o
                                         0x44 (size before relaxing)
 .eh_frame      0x00000000001159f4       0x28 binaries/ptreset.o
                                         0x40 (size before relaxing)
 .eh_frame      0x0000000000115a1c       0x30 binaries/ptsend.o
                                         0x48 (size before relaxing)
 .eh_frame      0x0000000000115a4c       0x2c binaries/putc.o
                                         0x44 (size before relaxing)
 .eh_frame      0x0000000000115a78       0x24 binaries/quark_irq.o
                                         0x3c (size before relaxing)
 .eh_frame      0x0000000000115a9c       0x54 binaries/quark_pdat.o
                                         0x6c (size before relaxing)
 .eh_frame      0x0000000000115af0       0x40 binaries/queue.o
                                         0x58 (size before relaxing)
 .eh_frame      0x0000000000115b30       0x28 binaries/read.o
                                         0x40 (size before relaxing)
 .eh_frame      0x0000000000115b58       0x20 binaries/ready.o
                                         0x38 (size before relaxing)
 .eh_frame      0x0000000000115b78       0x2c binaries/receive.o
                                         0x44 (size before relaxing)
 .eh_frame      0x0000000000115ba4       0x24 binaries/recvclr.o
                                         0x3c (size before relaxing)
 .eh_frame      0x0000000000115bc8       0x2c binaries/recvtime.o
                                         0x44 (size before relaxing)
 .eh_frame      0x0000000000115bf4       0x48 binaries/resched.o
                                         0x60 (size before relaxing)
 .eh_frame      0x0000000000115c3c       0x2c binaries/resume.o
                                         0x44 (size before relaxing)
 .eh_frame      0x0000000000115c68       0x28 binaries/seek.o
                                         0x40 (size before relaxing)
 .eh_frame      0x0000000000115c90       0x24 binaries/semcount.o
                                         0x3c (size before relaxing)
 .eh_frame      0x0000000000115cb4       0x2c binaries/semcreate.o
                                         0x44 (size before relaxing)
 .eh_frame      0x0000000000115ce0       0x2c binaries/semdelete.o
                                         0x44 (size before relaxing)
 .eh_frame      0x0000000000115d0c       0x2c binaries/semreset.o
                                         0x44 (size before relaxing)
 .eh_frame      0x0000000000115d38       0x28 binaries/send.o
                                         0x40 (size before relaxing)
 .eh_frame      0x0000000000115d60       0x28 binaries/signal.o
                                         0x40 (size before relaxing)
 .eh_frame      0x0000000000115d88       0x2c binaries/signaln.o
                                         0x44 (size before relaxing)
 .eh_frame      0x0000000000115db4       0x48 binaries/sleep.o
                                         0x60 (size before relaxing)
 .eh_frame      0x0000000000115dfc       0x30 binaries/stacktrace.o
                                         0x48 (size before relaxing)
 .eh_frame      0x0000000000115e2c       0x28 binaries/suspend.o
                                         0x40 (size before relaxing)
 .eh_frame      0x0000000000115e54       0x28 binaries/unsleep.o
                                         0x40 (size before relaxing)
 .eh_frame      0x0000000000115e7c       0x20 binaries/userret.o
                                         0x38 (size before relaxing)
 .eh_frame      0x0000000000115e9c       0x28 binaries/wait.o
                                         0x40 (size before relaxing)
 .eh_frame      0x0000000000115ec4       0x20 binaries/wakeup.o
                                         0x38 (size before relaxing)
 .eh_frame      0x0000000000115ee4       0x28 binaries/write.o
                                         0x40 (size before relaxing)
 .eh_frame      0x0000000000115f0c       0x20 binaries/xdone.o
                                         0x38 (size before relaxing)
 .eh_frame      0x0000000000115f2c       0x24 binaries/yield.o
                                         0x3c (size before relaxing)
 .eh_frame      0x0000000000115f50       0x20 binaries/app1.o
                                         0x38 (size before relaxing)
 .eh_frame      0x0000000000115f70       0x24 binaries/app2.o
                                         0x3c (size before relaxing)
 .eh_frame      0x0000000000115f94       0x28 binaries/app3.o
                                         0x40 (size before relaxing)
 .eh_frame      0x0000000000115fbc       0x24 binaries/getppid.o
                                         0x3c (size before relaxing)
 .eh_frame      0x0000000000115fe0       0x24 binaries/getpstate.o
                                         0x3c (size before relaxing)
 .eh_frame      0x0000000000116004       0x20 binaries/mywelcomemsg.o
                                         0x38 (size before relaxing)
 .eh_frame      0x0000000000116024       0x20 binaries/host2netlb.o
                                         0x38 (size before relaxing)
 .eh_frame      0x0000000000116044       0x20 binaries/host2netlc.o
                                         0x38 (size before relaxing)
 .eh_frame      0x0000000000116064       0x68 binaries/prntsegaddr.o
                                         0x80 (size before relaxing)
 .eh_frame      0x00000000001160cc       0x2c binaries/stackdepth.o
                                         0x44 (size before relaxing)
 .eh_frame      0x00000000001160f8       0x24 binaries/stacktop.o
                                         0x3c (size before relaxing)
 .eh_frame      0x000000000011611c       0x48 binaries/myappA.o
                                         0x60 (size before relaxing)
 .eh_frame      0x0000000000116164       0x20 binaries/myhacker.o
                                         0x38 (size before relaxing)
 .eh_frame      0x0000000000116184       0x40 binaries/myvictim.o
                                         0x58 (size before relaxing)
 .eh_frame      0x00000000001161c4       0x20 binaries/myhackermalware.o
                                         0x38 (size before relaxing)
 .eh_frame      0x00000000001161e4       0x44 binaries/lab2q3t1.o
                                         0x5c (size before relaxing)
 .eh_frame      0x0000000000116228       0x20 binaries/abs.o
                                         0x38 (size before relaxing)
 .eh_frame      0x0000000000116248       0x28 binaries/atoi.o
                                         0x40 (size before relaxing)
 .eh_frame      0x0000000000116270       0x28 binaries/atol.o
                                         0x40 (size before relaxing)
 .eh_frame      0x0000000000116298       0x20 binaries/bzero.o
                                         0x38 (size before relaxing)
 .eh_frame      0x00000000001162b8       0xac binaries/doprnt.o
                                         0xc4 (size before relaxing)
 .eh_frame      0x0000000000116364       0x30 binaries/doscan.o
                                         0x48 (size before relaxing)
 .eh_frame      0x0000000000116394       0x5c binaries/fdoprnt.o
                                         0x74 (size before relaxing)
 .eh_frame      0x00000000001163f0       0x20 binaries/fgetc.o
                                         0x38 (size before relaxing)
 .eh_frame      0x0000000000116410       0x2c binaries/fgets.o
                                         0x44 (size before relaxing)
 .eh_frame      0x000000000011643c       0x20 binaries/fprintf.o
                                         0x38 (size before relaxing)
 .eh_frame      0x000000000011645c       0x20 binaries/fputc.o
                                         0x38 (size before relaxing)
 .eh_frame      0x000000000011647c       0x28 binaries/fputs.o
                                         0x40 (size before relaxing)
 .eh_frame      0x00000000001164a4       0x64 binaries/fscanf.o
                                         0x7c (size before relaxing)
 .eh_frame      0x0000000000116508       0x20 binaries/getchar.o
                                         0x38 (size before relaxing)
 .eh_frame      0x0000000000116528       0x20 binaries/labs.o
                                         0x38 (size before relaxing)
 .eh_frame      0x0000000000116548       0x20 binaries/memchr.o
                                         0x38 (size before relaxing)
 .eh_frame      0x0000000000116568       0x28 binaries/memcmp.o
                                         0x40 (size before relaxing)
 .eh_frame      0x0000000000116590       0x28 binaries/memcpy.o
                                         0x40 (size before relaxing)
 .eh_frame      0x00000000001165b8       0x24 binaries/memset.o
                                         0x3c (size before relaxing)
 .eh_frame      0x00000000001165dc       0x20 binaries/printf.o
                                         0x38 (size before relaxing)
 .eh_frame      0x00000000001165fc       0x20 binaries/putchar.o
                                         0x38 (size before relaxing)
 .eh_frame      0x000000000011661c       0xa4 binaries/qsort.o
                                         0xbc (size before relaxing)
 .eh_frame      0x00000000001166c0       0x40 binaries/rand.o
                                         0x58 (size before relaxing)
 .eh_frame      0x0000000000116700       0x48 binaries/sprintf.o
                                         0x60 (size before relaxing)
 .eh_frame      0x0000000000116748       0x60 binaries/sscanf.o
                                         0x78 (size before relaxing)
 .eh_frame      0x00000000001167a8       0x24 binaries/strchr.o
                                         0x3c (size before relaxing)
 .eh_frame      0x00000000001167cc       0x24 binaries/strcmp.o
                                         0x3c (size before relaxing)
 .eh_frame      0x00000000001167f0       0x20 binaries/strcpy.o
                                         0x38 (size before relaxing)
 .eh_frame      0x0000000000116810       0x20 binaries/strlen.o
                                         0x38 (size before relaxing)
 .eh_frame      0x0000000000116830       0x2c binaries/strncat.o
                                         0x44 (size before relaxing)
 .eh_frame      0x000000000011685c       0x24 binaries/strncmp.o
                                         0x3c (size before relaxing)
 .eh_frame      0x0000000000116880       0x2c binaries/strncpy.o
                                         0x44 (size before relaxing)
 .eh_frame      0x00000000001168ac       0x24 binaries/strnlen.o
                                         0x3c (size before relaxing)
 .eh_frame      0x00000000001168d0       0x24 binaries/strrchr.o
                                         0x3c (size before relaxing)
 .eh_frame      0x00000000001168f4       0x2c binaries/strstr.o
                                         0x44 (size before relaxing)
 .eh_frame      0x0000000000116920       0x30 binaries/ttycontrol.o
                                         0x48 (size before relaxing)
 .eh_frame      0x0000000000116950       0x2c binaries/ttygetc.o
                                         0x44 (size before relaxing)
 .eh_frame      0x000000000011697c       0x84 binaries/ttyhandle_in.o
                                         0x9c (size before relaxing)
 .eh_frame      0x0000000000116a00       0x30 binaries/ttyhandle_out.o
                                         0x48 (size before relaxing)
 .eh_frame      0x0000000000116a30       0x28 binaries/ttyhandler.o
                                         0x40 (size before relaxing)
 .eh_frame      0x0000000000116a58       0x30 binaries/ttyinit.o
                                         0x48 (size before relaxing)
 .eh_frame      0x0000000000116a88       0x20 binaries/ttykickout.o
                                         0x38 (size before relaxing)
 .eh_frame      0x0000000000116aa8       0x2c binaries/ttyputc.o
                                         0x44 (size before relaxing)
 .eh_frame      0x0000000000116ad4       0x2c binaries/ttyread.o
                                         0x44 (size before relaxing)
 .eh_frame      0x0000000000116b00       0x2c binaries/ttywrite.o
                                         0x44 (size before relaxing)
 .eh_frame      0x0000000000116b2c       0x4c binaries/mount.o
                                         0x64 (size before relaxing)
 .eh_frame      0x0000000000116b78       0x30 binaries/naminit.o
                                         0x48 (size before relaxing)
 .eh_frame      0x0000000000116ba8       0x84 binaries/nammap.o
                                         0x9c (size before relaxing)
 .eh_frame      0x0000000000116c2c       0x20 binaries/namopen.o
                                         0x38 (size before relaxing)
 .eh_frame      0x0000000000116c4c       0x2c binaries/colon2mac.o
                                         0x44 (size before relaxing)
 .eh_frame      0x0000000000116c78       0x20 binaries/ethcontrol.o
                                         0x38 (size before relaxing)
 .eh_frame      0x0000000000116c98       0x30 binaries/ethhandler.o
                                         0x48 (size before relaxing)
 .eh_frame      0x0000000000116cc8       0x98 binaries/ethinit.o
                                         0xb0 (size before relaxing)
 .eh_frame      0x0000000000116d60       0x54 binaries/ethmcast.o
                                         0x6c (size before relaxing)
 .eh_frame      0x0000000000116db4       0x30 binaries/ethread.o
                                         0x48 (size before relaxing)
 .eh_frame      0x0000000000116de4       0x2c binaries/ethwrite.o
                                         0x44 (size before relaxing)
 .eh_frame      0x0000000000116e10       0x24 binaries/rdsbufalloc.o
                                         0x3c (size before relaxing)
 .eh_frame      0x0000000000116e34       0x2c binaries/rdsclose.o
                                         0x44 (size before relaxing)
 .eh_frame      0x0000000000116e60       0x30 binaries/rdscomm.o
                                         0x48 (size before relaxing)
 .eh_frame      0x0000000000116e90       0x30 binaries/rdscontrol.o
                                         0x48 (size before relaxing)
 .eh_frame      0x0000000000116ec0       0x30 binaries/rdsinit.o
                                         0x48 (size before relaxing)
 .eh_frame      0x0000000000116ef0       0x30 binaries/rdsopen.o
                                         0x48 (size before relaxing)
 .eh_frame      0x0000000000116f20       0x20 binaries/rdsprocess.o
                                         0x38 (size before relaxing)
 .eh_frame      0x0000000000116f40       0x30 binaries/rdsread.o
                                         0x48 (size before relaxing)
 .eh_frame      0x0000000000116f70       0x30 binaries/rdswrite.o
                                         0x48 (size before relaxing)
 .eh_frame      0x0000000000116fa0       0x20 binaries/ramclose.o
                                         0x38 (size before relaxing)
 .eh_frame      0x0000000000116fc0       0x20 binaries/raminit.o
                                         0x38 (size before relaxing)
 .eh_frame      0x0000000000116fe0       0x20 binaries/ramopen.o
                                         0x38 (size before relaxing)
 .eh_frame      0x0000000000117000       0x20 binaries/ramread.o
                                         0x38 (size before relaxing)
 .eh_frame      0x0000000000117020       0x20 binaries/ramwrite.o
                                         0x38 (size before relaxing)
 .eh_frame      0x0000000000117040       0x28 binaries/lfdballoc.o
                                         0x40 (size before relaxing)
 .eh_frame      0x0000000000117068       0x24 binaries/lfdbfree.o
                                         0x3c (size before relaxing)
 .eh_frame      0x000000000011708c       0x24 binaries/lfflush.o
                                         0x3c (size before relaxing)
 .eh_frame      0x00000000001170b0       0x20 binaries/lfgetmode.o
                                         0x38 (size before relaxing)
 .eh_frame      0x00000000001170d0       0x24 binaries/lfiballoc.o
                                         0x3c (size before relaxing)
 .eh_frame      0x00000000001170f4       0x20 binaries/lfibclear.o
                                         0x38 (size before relaxing)
 .eh_frame      0x0000000000117114       0x2c binaries/lfibget.o
                                         0x44 (size before relaxing)
 .eh_frame      0x0000000000117140       0x2c binaries/lfibput.o
                                         0x44 (size before relaxing)
 .eh_frame      0x000000000011716c       0x28 binaries/lflclose.o
                                         0x40 (size before relaxing)
 .eh_frame      0x0000000000117194       0x2c binaries/lflcontrol.o
                                         0x44 (size before relaxing)
 .eh_frame      0x00000000001171c0       0x2c binaries/lflgetc.o
                                         0x44 (size before relaxing)
 .eh_frame      0x00000000001171ec       0x2c binaries/lflinit.o
                                         0x44 (size before relaxing)
 .eh_frame      0x0000000000117218       0x30 binaries/lflputc.o
                                         0x48 (size before relaxing)
 .eh_frame      0x0000000000117248       0x2c binaries/lflread.o
                                         0x44 (size before relaxing)
 .eh_frame      0x0000000000117274       0x2c binaries/lflseek.o
                                         0x44 (size before relaxing)
 .eh_frame      0x00000000001172a0       0x2c binaries/lflwrite.o
                                         0x44 (size before relaxing)
 .eh_frame      0x00000000001172cc       0x30 binaries/lfsckfmt.o
                                         0x48 (size before relaxing)
 .eh_frame      0x00000000001172fc       0x30 binaries/lfscreate.o
                                         0x48 (size before relaxing)
 .eh_frame      0x000000000011732c       0x30 binaries/lfsetup.o
                                         0x48 (size before relaxing)
 .eh_frame      0x000000000011735c       0x20 binaries/lfsinit.o
                                         0x38 (size before relaxing)
 .eh_frame      0x000000000011737c       0x30 binaries/lfsopen.o
                                         0x48 (size before relaxing)
 .eh_frame      0x00000000001173ac       0x30 binaries/lftruncate.o
                                         0x48 (size before relaxing)
 .eh_frame      0x00000000001173dc       0x20 binaries/rflclose.o
                                         0x38 (size before relaxing)
 .eh_frame      0x00000000001173fc       0x20 binaries/rflgetc.o
                                         0x38 (size before relaxing)
 .eh_frame      0x000000000011741c       0x24 binaries/rflinit.o
                                         0x3c (size before relaxing)
 .eh_frame      0x0000000000117440       0x20 binaries/rflputc.o
                                         0x38 (size before relaxing)
 .eh_frame      0x0000000000117460       0x30 binaries/rflread.o
                                         0x48 (size before relaxing)
 .eh_frame      0x0000000000117490       0x20 binaries/rflseek.o
                                         0x38 (size before relaxing)
 .eh_frame      0x00000000001174b0       0x30 binaries/rflwrite.o
                                         0x48 (size before relaxing)
 .eh_frame      0x00000000001174e0       0x30 binaries/rfscomm.o
                                         0x48 (size before relaxing)
 .eh_frame      0x0000000000117510       0x2c binaries/rfscontrol.o
                                         0x44 (size before relaxing)
 .eh_frame      0x000000000011753c       0x20 binaries/rfsgetmode.o
                                         0x38 (size before relaxing)
 .eh_frame      0x000000000011755c       0x20 binaries/rfsinit.o
                                         0x38 (size before relaxing)
 .eh_frame      0x000000000011757c       0x20 binaries/rfsndmsg.o
                                         0x38 (size before relaxing)
 .eh_frame      0x000000000011759c       0x2c binaries/rfsopen.o
                                         0x44 (size before relaxing)
 .eh_frame      0x00000000001175c8       0xec binaries/arp.o
                                        0x104 (size before relaxing)
 .eh_frame      0x00000000001176b4       0xd0 binaries/dhcp.o
                                         0xe8 (size before relaxing)
 .eh_frame      0x0000000000117784       0x2c binaries/dot2ip.o
                                         0x44 (size before relaxing)
 .eh_frame      0x00000000001177b0       0x60 binaries/hexdump.o
                                         0x78 (size before relaxing)
 .eh_frame      0x0000000000117810      0x198 binaries/icmp.o
                                        0x1b0 (size before relaxing)
 .eh_frame      0x00000000001179a8      0x148 binaries/ip.o
                                        0x160 (size before relaxing)
 .eh_frame      0x0000000000117af0       0x7c binaries/net.o
                                         0x94 (size before relaxing)
 .eh_frame      0x0000000000117b6c       0x24 binaries/netstart.o
                                         0x3c (size before relaxing)
 .eh_frame      0x0000000000117b90       0x50 binaries/pdump.o
                                         0x68 (size before relaxing)
 .eh_frame      0x0000000000117be0       0x80 binaries/tftp.o
                                         0x98 (size before relaxing)
 .eh_frame      0x0000000000117c60      0x1b0 binaries/udp.o
                                        0x1c8 (size before relaxing)
 .eh_frame      0x0000000000117e10       0x30 binaries/addargs.o
                                         0x48 (size before relaxing)
 .eh_frame      0x0000000000117e40       0x30 binaries/lexan.o
                                         0x48 (size before relaxing)
 .eh_frame      0x0000000000117e70       0x30 binaries/shell.o
                                         0x48 (size before relaxing)
 .eh_frame      0x0000000000117ea0       0x2c binaries/xsh_argecho.o
                                         0x44 (size before relaxing)
 .eh_frame      0x0000000000117ecc       0x30 binaries/xsh_arp.o
                                         0x48 (size before relaxing)
 .eh_frame      0x0000000000117efc       0x30 binaries/xsh_cat.o
                                         0x48 (size before relaxing)
 .eh_frame      0x0000000000117f2c       0x20 binaries/xsh_clear.o
                                         0x38 (size before relaxing)
 .eh_frame      0x0000000000117f4c       0x24 binaries/xsh_date.o
                                         0x3c (size before relaxing)
 .eh_frame      0x0000000000117f70       0x28 binaries/xsh_devdump.o
                                         0x40 (size before relaxing)
 .eh_frame      0x0000000000117f98       0x2c binaries/xsh_echo.o
                                         0x44 (size before relaxing)
 .eh_frame      0x0000000000117fc4       0x20 binaries/xsh_exit.o
                                         0x38 (size before relaxing)
 .eh_frame      0x0000000000117fe4       0x30 binaries/xsh_help.o
                                         0x48 (size before relaxing)
 .eh_frame      0x0000000000118014       0x2c binaries/xsh_ipaddr.o
                                         0x44 (size before relaxing)
 .eh_frame      0x0000000000118040       0x2c binaries/xsh_kill.o
                                         0x44 (size before relaxing)
 .eh_frame      0x000000000011806c       0x58 binaries/xsh_memdump.o
                                         0x70 (size before relaxing)
 .eh_frame      0x00000000001180c4       0x30 binaries/xsh_memstat.o
                                         0x48 (size before relaxing)
 .eh_frame      0x00000000001180f4       0x30 binaries/xsh_ping.o
                                         0x48 (size before relaxing)
 .eh_frame      0x0000000000118124       0x30 binaries/xsh_ps.o
                                         0x48 (size before relaxing)
 .eh_frame      0x0000000000118154       0x30 binaries/xsh_sleep.o
                                         0x48 (size before relaxing)
 .eh_frame      0x0000000000118184       0x2c binaries/xsh_udpdump.o
                                         0x44 (size before relaxing)
 .eh_frame      0x00000000001181b0       0x30 binaries/xsh_udpecho.o
                                         0x48 (size before relaxing)
 .eh_frame      0x00000000001181e0       0x30 binaries/xsh_udpeserver.o
                                         0x48 (size before relaxing)
 .eh_frame      0x0000000000118210       0x30 binaries/xsh_uptime.o
                                         0x48 (size before relaxing)

.iplt           0x0000000000118240        0x0
 .iplt          0x0000000000118240        0x0 binaries/start.o

.rel.dyn        0x0000000000118240        0x0
 .rel.iplt      0x0000000000118240        0x0 binaries/start.o
 .rel.text      0x0000000000118240        0x0 binaries/start.o
 .rel.data      0x0000000000118240        0x0 binaries/start.o
 .rel.rodata    0x0000000000118240        0x0 binaries/start.o

.data           0x0000000000118240      0xdc0
                0x0000000000118240                data = ABSOLUTE (.)
 *(.data .data.*)
 .data          0x0000000000118240      0x85a binaries/start.o
                0x0000000000118240                gdt
                0x0000000000118290                idt
                0x0000000000118a96                cpudelay
 *fill*         0x0000000000118a9a        0x6 
 .data          0x0000000000118aa0       0x88 binaries/ascdate.o
                0x0000000000118aa0                Date
 .data          0x0000000000118b28        0x0 binaries/bufinit.o
 .data          0x0000000000118b28        0x0 binaries/chprio.o
 .data          0x0000000000118b28        0x4 binaries/clkhandler.o
 .data          0x0000000000118b2c        0x0 binaries/clkinit.o
 .data          0x0000000000118b2c        0x0 binaries/close.o
 *fill*         0x0000000000118b2c       0x14 
 .data          0x0000000000118b40      0x30c binaries/conf.o
                0x0000000000118b40                devtab
 .data          0x0000000000118e4c        0x0 binaries/control.o
 .data          0x0000000000118e4c        0x4 binaries/create.o
 .data          0x0000000000118e50        0x0 binaries/early_imr.o
 *fill*         0x0000000000118e50       0x10 
 .data          0x0000000000118e60       0x40 binaries/evec.o
                0x0000000000118e60                inames
 .data          0x0000000000118ea0        0x0 binaries/freebuf.o
 .data          0x0000000000118ea0        0x0 binaries/freemem.o
 .data          0x0000000000118ea0        0x0 binaries/getbuf.o
 .data          0x0000000000118ea0        0x0 binaries/getc.o
 .data          0x0000000000118ea0        0x0 binaries/getdev.o
 .data          0x0000000000118ea0        0x0 binaries/getitem.o
 .data          0x0000000000118ea0        0x0 binaries/getmem.o
 .data          0x0000000000118ea0        0x0 binaries/getpid.o
 .data          0x0000000000118ea0        0x0 binaries/getprio.o
 .data          0x0000000000118ea0        0x0 binaries/getstk.o
 .data          0x0000000000118ea0        0x0 binaries/gettime.o
 .data          0x0000000000118ea0        0x0 binaries/getutime.o
 .data          0x0000000000118ea0        0x0 binaries/init.o
 .data          0x0000000000118ea0        0x0 binaries/initialize.o
 .data          0x0000000000118ea0        0x0 binaries/insert.o
 .data          0x0000000000118ea0        0x0 binaries/insertd.o
 .data          0x0000000000118ea0        0x0 binaries/ioerr.o
 .data          0x0000000000118ea0        0x0 binaries/ionull.o
 .data          0x0000000000118ea0        0x0 binaries/kill.o
 .data          0x0000000000118ea0        0x0 binaries/kprintf.o
 .data          0x0000000000118ea0        0x0 binaries/main.o
 .data          0x0000000000118ea0        0x0 binaries/mark.o
 .data          0x0000000000118ea0       0x48 binaries/meminit.o
                0x0000000000118ea0                gdt_copy
                0x0000000000118ee0                bootinfo
                0x0000000000118ee4                bootsign
 .data          0x0000000000118ee8        0x0 binaries/mkbufpool.o
 .data          0x0000000000118ee8        0x2 binaries/newqueue.o
 .data          0x0000000000118eea        0x0 binaries/open.o
 .data          0x0000000000118eea        0x0 binaries/panic.o
 .data          0x0000000000118eea        0x0 binaries/pci.o
 .data          0x0000000000118eea        0x0 binaries/platinit.o
 .data          0x0000000000118eea        0x0 binaries/ptclear.o
 .data          0x0000000000118eea        0x0 binaries/ptcount.o
 .data          0x0000000000118eea        0x0 binaries/ptcreate.o
 .data          0x0000000000118eea        0x0 binaries/ptdelete.o
 .data          0x0000000000118eea        0x0 binaries/ptinit.o
 .data          0x0000000000118eea        0x0 binaries/ptrecv.o
 .data          0x0000000000118eea        0x0 binaries/ptreset.o
 .data          0x0000000000118eea        0x0 binaries/ptsend.o
 .data          0x0000000000118eea        0x0 binaries/putc.o
 .data          0x0000000000118eea        0x0 binaries/quark_irq.o
 .data          0x0000000000118eea        0x0 binaries/quark_pdat.o
 .data          0x0000000000118eea        0x0 binaries/queue.o
 .data          0x0000000000118eea        0x0 binaries/read.o
 .data          0x0000000000118eea        0x0 binaries/ready.o
 .data          0x0000000000118eea        0x0 binaries/receive.o
 .data          0x0000000000118eea        0x0 binaries/recvclr.o
 .data          0x0000000000118eea        0x0 binaries/recvtime.o
 .data          0x0000000000118eea        0x0 binaries/resched.o
 .data          0x0000000000118eea        0x0 binaries/resume.o
 .data          0x0000000000118eea        0x0 binaries/seek.o
 .data          0x0000000000118eea        0x0 binaries/semcount.o
 .data          0x0000000000118eea        0x0 binaries/semcreate.o
 .data          0x0000000000118eea        0x0 binaries/semdelete.o
 .data          0x0000000000118eea        0x0 binaries/semreset.o
 .data          0x0000000000118eea        0x0 binaries/send.o
 .data          0x0000000000118eea        0x0 binaries/signal.o
 .data          0x0000000000118eea        0x0 binaries/signaln.o
 .data          0x0000000000118eea        0x0 binaries/sleep.o
 .data          0x0000000000118eea        0x0 binaries/stacktrace.o
 .data          0x0000000000118eea        0x0 binaries/suspend.o
 .data          0x0000000000118eea        0x0 binaries/unsleep.o
 .data          0x0000000000118eea        0x0 binaries/userret.o
 .data          0x0000000000118eea        0x0 binaries/wait.o
 .data          0x0000000000118eea        0x0 binaries/wakeup.o
 .data          0x0000000000118eea        0x0 binaries/write.o
 .data          0x0000000000118eea        0x0 binaries/xdone.o
 .data          0x0000000000118eea        0x0 binaries/yield.o
 .data          0x0000000000118eea        0x0 binaries/app1.o
 .data          0x0000000000118eea        0x0 binaries/app2.o
 .data          0x0000000000118eea        0x0 binaries/app3.o
 .data          0x0000000000118eea        0x0 binaries/getppid.o
 .data          0x0000000000118eea        0x0 binaries/getpstate.o
 .data          0x0000000000118eea        0x0 binaries/mywelcomemsg.o
 .data          0x0000000000118eea        0x0 binaries/host2netlb.o
 .data          0x0000000000118eea        0x0 binaries/host2netlc.o
 .data          0x0000000000118eea        0x0 binaries/prntsegaddr.o
 .data          0x0000000000118eea        0x0 binaries/stackdepth.o
 .data          0x0000000000118eea        0x0 binaries/stacktop.o
 .data          0x0000000000118eea        0x0 binaries/myappA.o
 .data          0x0000000000118eea        0x0 binaries/myhacker.o
 .data          0x0000000000118eea        0x0 binaries/myvictim.o
 .data          0x0000000000118eea        0x0 binaries/myhackermalware.o
 .data          0x0000000000118eea        0x0 binaries/lab2q3t1.o
 .data          0x0000000000118eea        0x0 binaries/abs.o
 .data          0x0000000000118eea        0x0 binaries/atoi.o
 .data          0x0000000000118eea        0x0 binaries/atol.o
 .data          0x0000000000118eea        0x0 binaries/bzero.o
 .data          0x0000000000118eea        0x0 binaries/ctype_.o
 .data          0x0000000000118eea        0x0 binaries/doprnt.o
 *fill*         0x0000000000118eea       0x16 
 .data          0x0000000000118f00       0x80 binaries/doscan.o
                0x0000000000118f00                _sctab
 .data          0x0000000000118f80        0x0 binaries/fdoprnt.o
 .data          0x0000000000118f80        0x0 binaries/fgetc.o
 .data          0x0000000000118f80        0x0 binaries/fgets.o
 .data          0x0000000000118f80        0x0 binaries/fprintf.o
 .data          0x0000000000118f80        0x0 binaries/fputc.o
 .data          0x0000000000118f80        0x0 binaries/fputs.o
 .data          0x0000000000118f80        0x0 binaries/fscanf.o
 .data          0x0000000000118f80        0x0 binaries/getchar.o
 .data          0x0000000000118f80        0x0 binaries/labs.o
 .data          0x0000000000118f80        0x0 binaries/memchr.o
 .data          0x0000000000118f80        0x0 binaries/memcmp.o
 .data          0x0000000000118f80        0x0 binaries/memcpy.o
 .data          0x0000000000118f80        0x0 binaries/memset.o
 .data          0x0000000000118f80        0x0 binaries/printf.o
 .data          0x0000000000118f80        0x0 binaries/putchar.o
 .data          0x0000000000118f80        0x0 binaries/qsort.o
 .data          0x0000000000118f80        0x4 binaries/rand.o
 .data          0x0000000000118f84        0x0 binaries/sprintf.o
 .data          0x0000000000118f84        0x0 binaries/sscanf.o
 .data          0x0000000000118f84        0x0 binaries/strchr.o
 .data          0x0000000000118f84        0x0 binaries/strcmp.o
 .data          0x0000000000118f84        0x0 binaries/strcpy.o
 .data          0x0000000000118f84        0x0 binaries/strlen.o
 .data          0x0000000000118f84        0x0 binaries/strncat.o
 .data          0x0000000000118f84        0x0 binaries/strncmp.o
 .data          0x0000000000118f84        0x0 binaries/strncpy.o
 .data          0x0000000000118f84        0x0 binaries/strnlen.o
 .data          0x0000000000118f84        0x0 binaries/strrchr.o
 .data          0x0000000000118f84        0x0 binaries/strstr.o
 .data          0x0000000000118f84        0x0 binaries/ttycontrol.o
 .data          0x0000000000118f84        0x0 binaries/ttygetc.o
 .data          0x0000000000118f84        0x0 binaries/ttyhandle_in.o
 .data          0x0000000000118f84        0x0 binaries/ttyhandle_out.o
 .data          0x0000000000118f84        0x0 binaries/ttyhandler.o
 .data          0x0000000000118f84        0x0 binaries/ttyinit.o
 .data          0x0000000000118f84        0x0 binaries/ttykickout.o
 .data          0x0000000000118f84        0x0 binaries/ttyputc.o
 .data          0x0000000000118f84        0x0 binaries/ttyread.o
 .data          0x0000000000118f84        0x0 binaries/ttywrite.o
 .data          0x0000000000118f84        0x0 binaries/mount.o
 .data          0x0000000000118f84        0x0 binaries/naminit.o
 .data          0x0000000000118f84        0x0 binaries/nammap.o
 .data          0x0000000000118f84        0x0 binaries/namopen.o
 .data          0x0000000000118f84        0x0 binaries/colon2mac.o
 .data          0x0000000000118f84        0x0 binaries/ethcontrol.o
 .data          0x0000000000118f84        0x0 binaries/ethhandler.o
 .data          0x0000000000118f84        0x0 binaries/ethinit.o
 .data          0x0000000000118f84        0x0 binaries/ethmcast.o
 .data          0x0000000000118f84        0x0 binaries/ethread.o
 .data          0x0000000000118f84        0x0 binaries/ethwrite.o
 .data          0x0000000000118f84        0x0 binaries/rdsbufalloc.o
 .data          0x0000000000118f84        0x0 binaries/rdsclose.o
 .data          0x0000000000118f84        0x0 binaries/rdscomm.o
 .data          0x0000000000118f84        0x0 binaries/rdscontrol.o
 .data          0x0000000000118f84        0x0 binaries/rdsinit.o
 .data          0x0000000000118f84        0x0 binaries/rdsopen.o
 .data          0x0000000000118f84        0x0 binaries/rdsprocess.o
 .data          0x0000000000118f84        0x0 binaries/rdsread.o
 .data          0x0000000000118f84        0x0 binaries/rdswrite.o
 .data          0x0000000000118f84        0x0 binaries/ramclose.o
 .data          0x0000000000118f84        0x0 binaries/raminit.o
 .data          0x0000000000118f84        0x0 binaries/ramopen.o
 .data          0x0000000000118f84        0x0 binaries/ramread.o
 .data          0x0000000000118f84        0x0 binaries/ramwrite.o
 .data          0x0000000000118f84        0x0 binaries/lfdballoc.o
 .data          0x0000000000118f84        0x0 binaries/lfdbfree.o
 .data          0x0000000000118f84        0x0 binaries/lfflush.o
 .data          0x0000000000118f84        0x0 binaries/lfgetmode.o
 .data          0x0000000000118f84        0x0 binaries/lfiballoc.o
 .data          0x0000000000118f84        0x0 binaries/lfibclear.o
 .data          0x0000000000118f84        0x0 binaries/lfibget.o
 .data          0x0000000000118f84        0x0 binaries/lfibput.o
 .data          0x0000000000118f84        0x0 binaries/lflclose.o
 .data          0x0000000000118f84        0x0 binaries/lflcontrol.o
 .data          0x0000000000118f84        0x0 binaries/lflgetc.o
 .data          0x0000000000118f84        0x0 binaries/lflinit.o
 .data          0x0000000000118f84        0x0 binaries/lflputc.o
 .data          0x0000000000118f84        0x0 binaries/lflread.o
 .data          0x0000000000118f84        0x0 binaries/lflseek.o
 .data          0x0000000000118f84        0x0 binaries/lflwrite.o
 .data          0x0000000000118f84        0x0 binaries/lfsckfmt.o
 .data          0x0000000000118f84        0x0 binaries/lfscreate.o
 .data          0x0000000000118f84        0x0 binaries/lfsetup.o
 .data          0x0000000000118f84        0x0 binaries/lfsinit.o
 .data          0x0000000000118f84        0x0 binaries/lfsopen.o
 .data          0x0000000000118f84        0x0 binaries/lftruncate.o
 .data          0x0000000000118f84        0x0 binaries/rflclose.o
 .data          0x0000000000118f84        0x0 binaries/rflgetc.o
 .data          0x0000000000118f84        0x0 binaries/rflinit.o
 .data          0x0000000000118f84        0x0 binaries/rflputc.o
 .data          0x0000000000118f84        0x0 binaries/rflread.o
 .data          0x0000000000118f84        0x0 binaries/rflseek.o
 .data          0x0000000000118f84        0x0 binaries/rflwrite.o
 .data          0x0000000000118f84        0x0 binaries/rfscomm.o
 .data          0x0000000000118f84        0x0 binaries/rfscontrol.o
 .data          0x0000000000118f84        0x0 binaries/rfsgetmode.o
 .data          0x0000000000118f84        0x0 binaries/rfsinit.o
 .data          0x0000000000118f84        0x0 binaries/rfsndmsg.o
 .data          0x0000000000118f84        0x0 binaries/rfsopen.o
 .data          0x0000000000118f84        0x0 binaries/arp.o
 .data          0x0000000000118f84        0x0 binaries/dhcp.o
 .data          0x0000000000118f84        0x0 binaries/dot2ip.o
 .data          0x0000000000118f84        0x0 binaries/hexdump.o
 .data          0x0000000000118f84        0x4 binaries/icmp.o
 .data          0x0000000000118f88        0x0 binaries/ip.o
 .data          0x0000000000118f88        0x0 binaries/net.o
 .data          0x0000000000118f88        0x0 binaries/netstart.o
 .data          0x0000000000118f88        0x0 binaries/pdump.o
 .data          0x0000000000118f88        0x0 binaries/tftp.o
 .data          0x0000000000118f88        0x4 binaries/udp.o
 .data          0x0000000000118f8c        0x0 binaries/addargs.o
 .data          0x0000000000118f8c        0x0 binaries/lexan.o
 .data          0x0000000000118f8c        0x4 binaries/shell.o
                0x0000000000118f8c                ncmd
 .data          0x0000000000118f90        0x0 binaries/xsh_argecho.o
 .data          0x0000000000118f90        0x0 binaries/xsh_arp.o
 .data          0x0000000000118f90        0x0 binaries/xsh_cat.o
 .data          0x0000000000118f90        0x0 binaries/xsh_clear.o
 .data          0x0000000000118f90        0x0 binaries/xsh_date.o
 .data          0x0000000000118f90        0x0 binaries/xsh_devdump.o
 .data          0x0000000000118f90        0x0 binaries/xsh_echo.o
 .data          0x0000000000118f90        0x0 binaries/xsh_exit.o
 .data          0x0000000000118f90        0x0 binaries/xsh_help.o
 .data          0x0000000000118f90        0x0 binaries/xsh_ipaddr.o
 .data          0x0000000000118f90        0x0 binaries/xsh_kill.o
 .data          0x0000000000118f90        0x0 binaries/xsh_memdump.o
 .data          0x0000000000118f90        0x0 binaries/xsh_memstat.o
 .data          0x0000000000118f90        0x0 binaries/xsh_ping.o
 .data          0x0000000000118f90        0x0 binaries/xsh_ps.o
 .data          0x0000000000118f90        0x0 binaries/xsh_sleep.o
 .data          0x0000000000118f90        0x0 binaries/xsh_udpdump.o
 .data          0x0000000000118f90        0x0 binaries/xsh_udpecho.o
 .data          0x0000000000118f90        0x0 binaries/xsh_udpeserver.o
 .data          0x0000000000118f90        0x0 binaries/xsh_uptime.o
 .data          0x0000000000118f90        0x0 binaries/clkdisp.o
 .data          0x0000000000118f90        0x0 binaries/ctxsw.o
 .data          0x0000000000118f90        0x0 binaries/intr.o
 .data          0x0000000000118f90        0x0 binaries/host2netla.o
 .data          0x0000000000118f90        0x0 binaries/ttydispatch.o
 .data          0x0000000000118f90        0x0 binaries/ethdispatch.o
                0x0000000000118f90                edata = ABSOLUTE (.)
                0x0000000000119000                . = ALIGN (0x1000)
 *fill*         0x0000000000118f90       0x70 

.igot.plt       0x0000000000119000        0x0
 .igot.plt      0x0000000000119000        0x0 binaries/start.o

.bss            0x0000000000119000    0x20000
                0x0000000000119000                bss = ABSOLUTE (.)
 *(.bss .bss.*)
 .bss           0x0000000000119000        0x0 binaries/start.o
 .bss           0x0000000000119000        0x0 binaries/ascdate.o
 .bss           0x0000000000119000        0x0 binaries/bufinit.o
 .bss           0x0000000000119000        0x0 binaries/chprio.o
 .bss           0x0000000000119000        0x0 binaries/clkhandler.o
 .bss           0x0000000000119000        0x4 binaries/clkinit.o
                0x0000000000119000                ctr1000
 .bss           0x0000000000119004        0x0 binaries/close.o
 .bss           0x0000000000119004        0x0 binaries/conf.o
 .bss           0x0000000000119004        0x0 binaries/control.o
 .bss           0x0000000000119004        0x0 binaries/create.o
 .bss           0x0000000000119004        0x0 binaries/early_imr.o
 .bss           0x0000000000119004        0x0 binaries/evec.o
 .bss           0x0000000000119004        0x0 binaries/freebuf.o
 .bss           0x0000000000119004        0x0 binaries/freemem.o
 .bss           0x0000000000119004        0x0 binaries/getbuf.o
 .bss           0x0000000000119004        0x0 binaries/getc.o
 .bss           0x0000000000119004        0x0 binaries/getdev.o
 .bss           0x0000000000119004        0x0 binaries/getitem.o
 .bss           0x0000000000119004        0x0 binaries/getmem.o
 .bss           0x0000000000119004        0x0 binaries/getpid.o
 .bss           0x0000000000119004        0x0 binaries/getprio.o
 .bss           0x0000000000119004        0x0 binaries/getstk.o
 .bss           0x0000000000119004        0x0 binaries/gettime.o
 .bss           0x0000000000119004        0x0 binaries/getutime.o
 .bss           0x0000000000119004        0x0 binaries/init.o
 .bss           0x0000000000119004        0x0 binaries/initialize.o
 .bss           0x0000000000119004        0x0 binaries/insert.o
 .bss           0x0000000000119004        0x0 binaries/insertd.o
 .bss           0x0000000000119004        0x0 binaries/ioerr.o
 .bss           0x0000000000119004        0x0 binaries/ionull.o
 .bss           0x0000000000119004        0x0 binaries/kill.o
 .bss           0x0000000000119004        0x0 binaries/kprintf.o
 .bss           0x0000000000119004        0x4 binaries/main.o
                0x0000000000119004                victimglobal
 .bss           0x0000000000119008        0x0 binaries/mark.o
 .bss           0x0000000000119008        0x0 binaries/meminit.o
 .bss           0x0000000000119008        0x0 binaries/mkbufpool.o
 .bss           0x0000000000119008        0x0 binaries/newqueue.o
 .bss           0x0000000000119008        0x0 binaries/open.o
 .bss           0x0000000000119008        0x0 binaries/panic.o
 .bss           0x0000000000119008        0x0 binaries/pci.o
 .bss           0x0000000000119008        0x0 binaries/platinit.o
 .bss           0x0000000000119008        0x0 binaries/ptclear.o
 .bss           0x0000000000119008        0x0 binaries/ptcount.o
 .bss           0x0000000000119008        0x0 binaries/ptcreate.o
 .bss           0x0000000000119008        0x0 binaries/ptdelete.o
 .bss           0x0000000000119008        0x0 binaries/ptinit.o
 .bss           0x0000000000119008        0x0 binaries/ptrecv.o
 .bss           0x0000000000119008        0x0 binaries/ptreset.o
 .bss           0x0000000000119008        0x0 binaries/ptsend.o
 .bss           0x0000000000119008        0x0 binaries/putc.o
 .bss           0x0000000000119008        0x0 binaries/quark_irq.o
 .bss           0x0000000000119008        0x0 binaries/quark_pdat.o
 .bss           0x0000000000119008        0x0 binaries/queue.o
 .bss           0x0000000000119008        0x0 binaries/read.o
 .bss           0x0000000000119008        0x0 binaries/ready.o
 .bss           0x0000000000119008        0x0 binaries/receive.o
 .bss           0x0000000000119008        0x0 binaries/recvclr.o
 .bss           0x0000000000119008        0x0 binaries/recvtime.o
 .bss           0x0000000000119008        0x0 binaries/resched.o
 .bss           0x0000000000119008        0x0 binaries/resume.o
 .bss           0x0000000000119008        0x0 binaries/seek.o
 .bss           0x0000000000119008        0x0 binaries/semcount.o
 .bss           0x0000000000119008        0x4 binaries/semcreate.o
 .bss           0x000000000011900c        0x0 binaries/semdelete.o
 .bss           0x000000000011900c        0x0 binaries/semreset.o
 .bss           0x000000000011900c        0x0 binaries/send.o
 .bss           0x000000000011900c        0x0 binaries/signal.o
 .bss           0x000000000011900c        0x0 binaries/signaln.o
 .bss           0x000000000011900c        0x0 binaries/sleep.o
 .bss           0x000000000011900c        0x8 binaries/stacktrace.o
 .bss           0x0000000000119014        0x0 binaries/suspend.o
 .bss           0x0000000000119014        0x0 binaries/unsleep.o
 .bss           0x0000000000119014        0x0 binaries/userret.o
 .bss           0x0000000000119014        0x0 binaries/wait.o
 .bss           0x0000000000119014        0x0 binaries/wakeup.o
 .bss           0x0000000000119014        0x0 binaries/write.o
 .bss           0x0000000000119014        0x0 binaries/xdone.o
 .bss           0x0000000000119014        0x0 binaries/yield.o
 .bss           0x0000000000119014        0x0 binaries/app1.o
 .bss           0x0000000000119014        0x0 binaries/app2.o
 .bss           0x0000000000119014        0x0 binaries/app3.o
 .bss           0x0000000000119014        0x0 binaries/getppid.o
 .bss           0x0000000000119014        0x0 binaries/getpstate.o
 .bss           0x0000000000119014        0x0 binaries/mywelcomemsg.o
 .bss           0x0000000000119014        0x0 binaries/host2netlb.o
 .bss           0x0000000000119014        0x0 binaries/host2netlc.o
 .bss           0x0000000000119014        0x0 binaries/prntsegaddr.o
 .bss           0x0000000000119014        0x0 binaries/stackdepth.o
 .bss           0x0000000000119014        0x0 binaries/stacktop.o
 .bss           0x0000000000119014        0x0 binaries/myappA.o
 .bss           0x0000000000119014        0x0 binaries/myhacker.o
 .bss           0x0000000000119014        0x0 binaries/myvictim.o
 .bss           0x0000000000119014        0x0 binaries/myhackermalware.o
 .bss           0x0000000000119014        0x0 binaries/lab2q3t1.o
 .bss           0x0000000000119014        0x0 binaries/abs.o
 .bss           0x0000000000119014        0x0 binaries/atoi.o
 .bss           0x0000000000119014        0x0 binaries/atol.o
 .bss           0x0000000000119014        0x0 binaries/bzero.o
 .bss           0x0000000000119014        0x0 binaries/ctype_.o
 .bss           0x0000000000119014        0x0 binaries/doprnt.o
 .bss           0x0000000000119014        0x0 binaries/doscan.o
 .bss           0x0000000000119014        0x0 binaries/fdoprnt.o
 .bss           0x0000000000119014        0x0 binaries/fgetc.o
 .bss           0x0000000000119014        0x0 binaries/fgets.o
 .bss           0x0000000000119014        0x0 binaries/fprintf.o
 .bss           0x0000000000119014        0x0 binaries/fputc.o
 .bss           0x0000000000119014        0x0 binaries/fputs.o
 .bss           0x0000000000119014        0x0 binaries/fscanf.o
 .bss           0x0000000000119014        0x0 binaries/getchar.o
 .bss           0x0000000000119014        0x0 binaries/labs.o
 .bss           0x0000000000119014        0x0 binaries/memchr.o
 .bss           0x0000000000119014        0x0 binaries/memcmp.o
 .bss           0x0000000000119014        0x0 binaries/memcpy.o
 .bss           0x0000000000119014        0x0 binaries/memset.o
 .bss           0x0000000000119014        0x0 binaries/printf.o
 .bss           0x0000000000119014        0x0 binaries/putchar.o
 .bss           0x0000000000119014        0x8 binaries/qsort.o
 .bss           0x000000000011901c        0x0 binaries/rand.o
 .bss           0x000000000011901c        0x0 binaries/sprintf.o
 .bss           0x000000000011901c        0x0 binaries/sscanf.o
 .bss           0x000000000011901c        0x0 binaries/strchr.o
 .bss           0x000000000011901c        0x0 binaries/strcmp.o
 .bss           0x000000000011901c        0x0 binaries/strcpy.o
 .bss           0x000000000011901c        0x0 binaries/strlen.o
 .bss           0x000000000011901c        0x0 binaries/strncat.o
 .bss           0x000000000011901c        0x0 binaries/strncmp.o
 .bss           0x000000000011901c        0x0 binaries/strncpy.o
 .bss           0x000000000011901c        0x0 binaries/strnlen.o
 .bss           0x000000000011901c        0x0 binaries/strrchr.o
 .bss           0x000000000011901c        0x0 binaries/strstr.o
 .bss           0x000000000011901c        0x0 binaries/ttycontrol.o
 .bss           0x000000000011901c        0x0 binaries/ttygetc.o
 .bss           0x000000000011901c        0x0 binaries/ttyhandle_in.o
 .bss           0x000000000011901c        0x0 binaries/ttyhandle_out.o
 .bss           0x000000000011901c        0x0 binaries/ttyhandler.o
 .bss           0x000000000011901c        0x0 binaries/ttyinit.o
 .bss           0x000000000011901c        0x0 binaries/ttykickout.o
 .bss           0x000000000011901c        0x0 binaries/ttyputc.o
 .bss           0x000000000011901c        0x0 binaries/ttyread.o
 .bss           0x000000000011901c        0x0 binaries/ttywrite.o
 .bss           0x000000000011901c        0x0 binaries/mount.o
 .bss           0x000000000011901c        0x0 binaries/naminit.o
 .bss           0x000000000011901c        0x0 binaries/nammap.o
 .bss           0x000000000011901c        0x0 binaries/namopen.o
 .bss           0x000000000011901c        0x0 binaries/colon2mac.o
 .bss           0x000000000011901c        0x0 binaries/ethcontrol.o
 .bss           0x000000000011901c        0x0 binaries/ethhandler.o
 .bss           0x000000000011901c        0x0 binaries/ethinit.o
 .bss           0x000000000011901c        0x0 binaries/ethmcast.o
 .bss           0x000000000011901c        0x0 binaries/ethread.o
 .bss           0x000000000011901c        0x0 binaries/ethwrite.o
 .bss           0x000000000011901c        0x0 binaries/rdsbufalloc.o
 .bss           0x000000000011901c        0x0 binaries/rdsclose.o
 .bss           0x000000000011901c        0x0 binaries/rdscomm.o
 .bss           0x000000000011901c        0x0 binaries/rdscontrol.o
 .bss           0x000000000011901c        0x0 binaries/rdsinit.o
 .bss           0x000000000011901c        0x0 binaries/rdsopen.o
 .bss           0x000000000011901c        0x0 binaries/rdsprocess.o
 .bss           0x000000000011901c        0x0 binaries/rdsread.o
 .bss           0x000000000011901c        0x0 binaries/rdswrite.o
 .bss           0x000000000011901c        0x0 binaries/ramclose.o
 .bss           0x000000000011901c        0x0 binaries/raminit.o
 .bss           0x000000000011901c        0x0 binaries/ramopen.o
 .bss           0x000000000011901c        0x0 binaries/ramread.o
 .bss           0x000000000011901c        0x0 binaries/ramwrite.o
 .bss           0x000000000011901c        0x0 binaries/lfdballoc.o
 .bss           0x000000000011901c        0x0 binaries/lfdbfree.o
 .bss           0x000000000011901c        0x0 binaries/lfflush.o
 .bss           0x000000000011901c        0x0 binaries/lfgetmode.o
 .bss           0x000000000011901c        0x0 binaries/lfiballoc.o
 .bss           0x000000000011901c        0x0 binaries/lfibclear.o
 .bss           0x000000000011901c        0x0 binaries/lfibget.o
 .bss           0x000000000011901c        0x0 binaries/lfibput.o
 .bss           0x000000000011901c        0x0 binaries/lflclose.o
 .bss           0x000000000011901c        0x0 binaries/lflcontrol.o
 .bss           0x000000000011901c        0x0 binaries/lflgetc.o
 .bss           0x000000000011901c        0x0 binaries/lflinit.o
 .bss           0x000000000011901c        0x0 binaries/lflputc.o
 .bss           0x000000000011901c        0x0 binaries/lflread.o
 .bss           0x000000000011901c        0x0 binaries/lflseek.o
 .bss           0x000000000011901c        0x0 binaries/lflwrite.o
 .bss           0x000000000011901c        0x0 binaries/lfsckfmt.o
 .bss           0x000000000011901c        0x0 binaries/lfscreate.o
 .bss           0x000000000011901c        0x0 binaries/lfsetup.o
 .bss           0x000000000011901c        0x0 binaries/lfsinit.o
 .bss           0x000000000011901c        0x0 binaries/lfsopen.o
 .bss           0x000000000011901c        0x0 binaries/lftruncate.o
 .bss           0x000000000011901c        0x0 binaries/rflclose.o
 .bss           0x000000000011901c        0x0 binaries/rflgetc.o
 .bss           0x000000000011901c        0x0 binaries/rflinit.o
 .bss           0x000000000011901c        0x0 binaries/rflputc.o
 .bss           0x000000000011901c        0x0 binaries/rflread.o
 .bss           0x000000000011901c        0x0 binaries/rflseek.o
 .bss           0x000000000011901c        0x0 binaries/rflwrite.o
 .bss           0x000000000011901c        0x0 binaries/rfscomm.o
 .bss           0x000000000011901c        0x0 binaries/rfscontrol.o
 .bss           0x000000000011901c        0x0 binaries/rfsgetmode.o
 .bss           0x000000000011901c        0x0 binaries/rfsinit.o
 .bss           0x000000000011901c        0x0 binaries/rfsndmsg.o
 .bss           0x000000000011901c        0x0 binaries/rfsopen.o
 .bss           0x000000000011901c        0x0 binaries/arp.o
 .bss           0x000000000011901c        0x0 binaries/dhcp.o
 .bss           0x000000000011901c        0x0 binaries/dot2ip.o
 .bss           0x000000000011901c        0x0 binaries/hexdump.o
 .bss           0x000000000011901c        0x0 binaries/icmp.o
 .bss           0x000000000011901c        0x0 binaries/ip.o
 .bss           0x000000000011901c        0x0 binaries/net.o
 .bss           0x000000000011901c        0x0 binaries/netstart.o
 .bss           0x000000000011901c        0x0 binaries/pdump.o
 .bss           0x000000000011901c        0x0 binaries/tftp.o
 .bss           0x000000000011901c        0x0 binaries/udp.o
 .bss           0x000000000011901c        0x0 binaries/addargs.o
 .bss           0x000000000011901c        0x0 binaries/lexan.o
 .bss           0x000000000011901c        0x0 binaries/shell.o
 .bss           0x000000000011901c        0x0 binaries/xsh_argecho.o
 .bss           0x000000000011901c        0x0 binaries/xsh_arp.o
 .bss           0x000000000011901c        0x0 binaries/xsh_cat.o
 .bss           0x000000000011901c        0x0 binaries/xsh_clear.o
 .bss           0x000000000011901c        0x0 binaries/xsh_date.o
 .bss           0x000000000011901c        0x0 binaries/xsh_devdump.o
 .bss           0x000000000011901c        0x0 binaries/xsh_echo.o
 .bss           0x000000000011901c        0x0 binaries/xsh_exit.o
 .bss           0x000000000011901c        0x0 binaries/xsh_help.o
 .bss           0x000000000011901c        0x0 binaries/xsh_ipaddr.o
 .bss           0x000000000011901c        0x0 binaries/xsh_kill.o
 .bss           0x000000000011901c        0x0 binaries/xsh_memdump.o
 .bss           0x000000000011901c        0x0 binaries/xsh_memstat.o
 .bss           0x000000000011901c        0x4 binaries/xsh_ping.o
 .bss           0x0000000000119020        0x0 binaries/xsh_ps.o
 .bss           0x0000000000119020        0x0 binaries/xsh_sleep.o
 .bss           0x0000000000119020        0x0 binaries/xsh_udpdump.o
 .bss           0x0000000000119020        0x0 binaries/xsh_udpecho.o
 .bss           0x0000000000119020        0x0 binaries/xsh_udpeserver.o
 .bss           0x0000000000119020        0x0 binaries/xsh_uptime.o
 .bss           0x0000000000119020        0x0 binaries/clkdisp.o
 .bss           0x0000000000119020        0x0 binaries/ctxsw.o
 .bss           0x0000000000119020        0x0 binaries/intr.o
 .bss           0x0000000000119020        0x0 binaries/host2netla.o
 .bss           0x0000000000119020        0x0 binaries/ttydispatch.o
 .bss           0x0000000000119020        0x0 binaries/ethdispatch.o
 *(COMMON)
 COMMON         0x0000000000119020       0xf4 binaries/bufinit.o
                0x0000000000119020                buftab
                0x0000000000119110                nbpools
 COMMON         0x0000000000119114       0x10 binaries/clkinit.o
                0x0000000000119114                sleepq
                0x0000000000119118                preempt
                0x000000000011911c                clktimemsec
                0x0000000000119120                clktime
 COMMON         0x0000000000119124        0x2 binaries/evec.o
                0x0000000000119124                girmask
 *fill*         0x0000000000119126       0x1a 
 COMMON         0x0000000000119140     0x1df8 binaries/initialize.o
                0x0000000000119140                currpid
                0x0000000000119160                proctab
                0x000000000011aa60                prcount
                0x000000000011aa80                semtab
                0x000000000011af30                memlist
 *fill*         0x000000000011af38        0x8 
 COMMON         0x000000000011af40       0x58 binaries/mark.o
                0x000000000011af40                marks
                0x000000000011af90                nmarks
                0x000000000011af94                mkmutex
 COMMON         0x000000000011af98        0x8 binaries/meminit.o
                0x000000000011af98                minheap
                0x000000000011af9c                maxheap
 COMMON         0x000000000011afa0      0x2d8 binaries/ptinit.o
                0x000000000011afa0                porttab
                0x000000000011b270                ptnextid
                0x000000000011b274                ptfree
 *fill*         0x000000000011b278        0x8 
 COMMON         0x000000000011b280      0x980 binaries/queue.o
                0x000000000011b280                queuetab
 COMMON         0x000000000011bc00        0x2 binaries/ready.o
                0x000000000011bc00                readylist
 *fill*         0x000000000011bc02        0x2 
 COMMON         0x000000000011bc04        0x8 binaries/resched.o
                0x000000000011bc04                Defer
 COMMON         0x000000000011bc0c        0x4 binaries/myhacker.o
                0x000000000011bc0c                plzhackme_content
 *fill*         0x000000000011bc10       0x10 
 COMMON         0x000000000011bc20      0x10c binaries/ttyinit.o
                0x000000000011bc20                ttytab
 *fill*         0x000000000011bd2c       0x14 
 COMMON         0x000000000011bd40     0x19c0 binaries/naminit.o
                0x000000000011bd40                nnames
                0x000000000011bd60                nametab
 COMMON         0x000000000011d700      0x138 binaries/ethinit.o
                0x000000000011d700                ethertab
 *fill*         0x000000000011d838        0x8 
 COMMON         0x000000000011d840       0x8c binaries/rdsinit.o
                0x000000000011d840                rdstab
 *fill*         0x000000000011d8cc       0x14 
 COMMON         0x000000000011d8e0    0x19000 binaries/raminit.o
                0x000000000011d8e0                Ram
 COMMON         0x00000000001368e0      0xf00 binaries/lflinit.o
                0x00000000001368e0                lfltab
 COMMON         0x00000000001377e0      0x20c binaries/lfsinit.o
                0x00000000001377e0                Lf_data
 *fill*         0x00000000001379ec       0x14 
 COMMON         0x0000000000137a00      0x5a0 binaries/rflinit.o
                0x0000000000137a00                rfltab
 COMMON         0x0000000000137fa0       0x18 binaries/rfsinit.o
                0x0000000000137fa0                Rf_data
 *fill*         0x0000000000137fb8        0x8 
 COMMON         0x0000000000137fc0      0x140 binaries/arp.o
                0x0000000000137fc0                arpcache
 COMMON         0x0000000000138100      0x230 binaries/icmp.o
                0x0000000000138100                icmptab
 *fill*         0x0000000000138330       0x10 
 COMMON         0x0000000000138340       0x2c binaries/ip.o
                0x0000000000138340                ipoqueue
 *fill*         0x000000000013836c       0x14 
 COMMON         0x0000000000138380       0xc8 binaries/net.o
                0x0000000000138380                netbufpool
                0x00000000001383a0                NetData
 *fill*         0x0000000000138448       0x18 
 COMMON         0x0000000000138460      0x168 binaries/udp.o
                0x0000000000138460                udptab
                0x00000000001385c8                ebss = ABSOLUTE (.)
                0x0000000000139000                . = ALIGN (0x1000)
 *fill*         0x00000000001385c8      0xa38 
 */()
                0x0000000000139000                end = ABSOLUTE (.)
                0x0000000000139000                _end = ABSOLUTE (.)
                0x0000000000139000                . = ALIGN (0x1000)
LOAD binaries/start.o
LOAD binaries/ascdate.o
LOAD binaries/bufinit.o
LOAD binaries/chprio.o
LOAD binaries/clkhandler.o
LOAD binaries/clkinit.o
LOAD binaries/close.o
LOAD binaries/conf.o
LOAD binaries/control.o
LOAD binaries/create.o
LOAD binaries/early_imr.o
LOAD binaries/evec.o
LOAD binaries/freebuf.o
LOAD binaries/freemem.o
LOAD binaries/getbuf.o
LOAD binaries/getc.o
LOAD binaries/getdev.o
LOAD binaries/getitem.o
LOAD binaries/getmem.o
LOAD binaries/getpid.o
LOAD binaries/getprio.o
LOAD binaries/getstk.o
LOAD binaries/gettime.o
LOAD binaries/getutime.o
LOAD binaries/init.o
LOAD binaries/initialize.o
LOAD binaries/insert.o
LOAD binaries/insertd.o
LOAD binaries/ioerr.o
LOAD binaries/ionull.o
LOAD binaries/kill.o
LOAD binaries/kprintf.o
LOAD binaries/main.o
LOAD binaries/mark.o
LOAD binaries/meminit.o
LOAD binaries/mkbufpool.o
LOAD binaries/newqueue.o
LOAD binaries/open.o
LOAD binaries/panic.o
LOAD binaries/pci.o
LOAD binaries/platinit.o
LOAD binaries/ptclear.o
LOAD binaries/ptcount.o
LOAD binaries/ptcreate.o
LOAD binaries/ptdelete.o
LOAD binaries/ptinit.o
LOAD binaries/ptrecv.o
LOAD binaries/ptreset.o
LOAD binaries/ptsend.o
LOAD binaries/putc.o
LOAD binaries/quark_irq.o
LOAD binaries/quark_pdat.o
LOAD binaries/queue.o
LOAD binaries/read.o
LOAD binaries/ready.o
LOAD binaries/receive.o
LOAD binaries/recvclr.o
LOAD binaries/recvtime.o
LOAD binaries/resched.o
LOAD binaries/resume.o
LOAD binaries/seek.o
LOAD binaries/semcount.o
LOAD binaries/semcreate.o
LOAD binaries/semdelete.o
LOAD binaries/semreset.o
LOAD binaries/send.o
LOAD binaries/signal.o
LOAD binaries/signaln.o
LOAD binaries/sleep.o
LOAD binaries/stacktrace.o
LOAD binaries/suspend.o
LOAD binaries/unsleep.o
LOAD binaries/userret.o
LOAD binaries/wait.o
LOAD binaries/wakeup.o
LOAD binaries/write.o
LOAD binaries/xdone.o
LOAD binaries/yield.o
LOAD binaries/app1.o
LOAD binaries/app2.o
LOAD binaries/app3.o
LOAD binaries/getppid.o
LOAD binaries/getpstate.o
LOAD binaries/mywelcomemsg.o
LOAD binaries/host2netlb.o
LOAD binaries/host2netlc.o
LOAD binaries/prntsegaddr.o
LOAD binaries/stackdepth.o
LOAD binaries/stacktop.o
LOAD binaries/myappA.o
LOAD binaries/myhacker.o
LOAD binaries/myvictim.o
LOAD binaries/myhackermalware.o
LOAD binaries/lab2q3t1.o
LOAD binaries/abs.o
LOAD binaries/atoi.o
LOAD binaries/atol.o
LOAD binaries/bzero.o
LOAD binaries/ctype_.o
LOAD binaries/doprnt.o
LOAD binaries/doscan.o
LOAD binaries/fdoprnt.o
LOAD binaries/fgetc.o
LOAD binaries/fgets.o
LOAD binaries/fprintf.o
LOAD binaries/fputc.o
LOAD binaries/fputs.o
LOAD binaries/fscanf.o
LOAD binaries/getchar.o
LOAD binaries/labs.o
LOAD binaries/memchr.o
LOAD binaries/memcmp.o
LOAD binaries/memcpy.o
LOAD binaries/memset.o
LOAD binaries/printf.o
LOAD binaries/putchar.o
LOAD binaries/qsort.o
LOAD binaries/rand.o
LOAD binaries/sprintf.o
LOAD binaries/sscanf.o
LOAD binaries/strchr.o
LOAD binaries/strcmp.o
LOAD binaries/strcpy.o
LOAD binaries/strlen.o
LOAD binaries/strncat.o
LOAD binaries/strncmp.o
LOAD binaries/strncpy.o
LOAD binaries/strnlen.o
LOAD binaries/strrchr.o
LOAD binaries/strstr.o
LOAD binaries/ttycontrol.o
LOAD binaries/ttygetc.o
LOAD binaries/ttyhandle_in.o
LOAD binaries/ttyhandle_out.o
LOAD binaries/ttyhandler.o
LOAD binaries/ttyinit.o
LOAD binaries/ttykickout.o
LOAD binaries/ttyputc.o
LOAD binaries/ttyread.o
LOAD binaries/ttywrite.o
LOAD binaries/mount.o
LOAD binaries/naminit.o
LOAD binaries/nammap.o
LOAD binaries/namopen.o
LOAD binaries/colon2mac.o
LOAD binaries/ethcontrol.o
LOAD binaries/ethhandler.o
LOAD binaries/ethinit.o
LOAD binaries/ethmcast.o
LOAD binaries/ethread.o
LOAD binaries/ethwrite.o
LOAD binaries/rdsbufalloc.o
LOAD binaries/rdsclose.o
LOAD binaries/rdscomm.o
LOAD binaries/rdscontrol.o
LOAD binaries/rdsinit.o
LOAD binaries/rdsopen.o
LOAD binaries/rdsprocess.o
LOAD binaries/rdsread.o
LOAD binaries/rdswrite.o
LOAD binaries/ramclose.o
LOAD binaries/raminit.o
LOAD binaries/ramopen.o
LOAD binaries/ramread.o
LOAD binaries/ramwrite.o
LOAD binaries/lfdballoc.o
LOAD binaries/lfdbfree.o
LOAD binaries/lfflush.o
LOAD binaries/lfgetmode.o
LOAD binaries/lfiballoc.o
LOAD binaries/lfibclear.o
LOAD binaries/lfibget.o
LOAD binaries/lfibput.o
LOAD binaries/lflclose.o
LOAD binaries/lflcontrol.o
LOAD binaries/lflgetc.o
LOAD binaries/lflinit.o
LOAD binaries/lflputc.o
LOAD binaries/lflread.o
LOAD binaries/lflseek.o
LOAD binaries/lflwrite.o
LOAD binaries/lfsckfmt.o
LOAD binaries/lfscreate.o
LOAD binaries/lfsetup.o
LOAD binaries/lfsinit.o
LOAD binaries/lfsopen.o
LOAD binaries/lftruncate.o
LOAD binaries/rflclose.o
LOAD binaries/rflgetc.o
LOAD binaries/rflinit.o
LOAD binaries/rflputc.o
LOAD binaries/rflread.o
LOAD binaries/rflseek.o
LOAD binaries/rflwrite.o
LOAD binaries/rfscomm.o
LOAD binaries/rfscontrol.o
LOAD binaries/rfsgetmode.o
LOAD binaries/rfsinit.o
LOAD binaries/rfsndmsg.o
LOAD binaries/rfsopen.o
LOAD binaries/arp.o
LOAD binaries/dhcp.o
LOAD binaries/dot2ip.o
LOAD binaries/hexdump.o
LOAD binaries/icmp.o
LOAD binaries/ip.o
LOAD binaries/net.o
LOAD binaries/netstart.o
LOAD binaries/pdump.o
LOAD binaries/tftp.o
LOAD binaries/udp.o
LOAD binaries/addargs.o
LOAD binaries/lexan.o
LOAD binaries/shell.o
LOAD binaries/xsh_argecho.o
LOAD binaries/xsh_arp.o
LOAD binaries/xsh_cat.o
LOAD binaries/xsh_clear.o
LOAD binaries/xsh_date.o
LOAD binaries/xsh_devdump.o
LOAD binaries/xsh_echo.o
LOAD binaries/xsh_exit.o
LOAD binaries/xsh_help.o
LOAD binaries/xsh_ipaddr.o
LOAD binaries/xsh_kill.o
LOAD binaries/xsh_memdump.o
LOAD binaries/xsh_memstat.o
LOAD binaries/xsh_ping.o
LOAD binaries/xsh_ps.o
LOAD binaries/xsh_sleep.o
LOAD binaries/xsh_udpdump.o
LOAD binaries/xsh_udpecho.o
LOAD binaries/xsh_udpeserver.o
LOAD binaries/xsh_uptime.o
LOAD binaries/clkdisp.o
LOAD binaries/ctxsw.o
LOAD binaries/intr.o
LOAD binaries/host2netla.o
LOAD binaries/ttydispatch.o
LOAD binaries/ethdispatch.o
OUTPUT(../compile/xinu elf32-i386)

.comment        0x0000000000000000       0x2a
 .comment       0x0000000000000000       0x2a binaries/ascdate.o
                                         0x2b (size before relaxing)
 .comment       0x000000000000002a       0x2b binaries/bufinit.o
 .comment       0x000000000000002a       0x2b binaries/chprio.o
 .comment       0x000000000000002a       0x2b binaries/clkhandler.o
 .comment       0x000000000000002a       0x2b binaries/clkinit.o
 .comment       0x000000000000002a       0x2b binaries/close.o
 .comment       0x000000000000002a       0x2b binaries/conf.o
 .comment       0x000000000000002a       0x2b binaries/control.o
 .comment       0x000000000000002a       0x2b binaries/create.o
 .comment       0x000000000000002a       0x2b binaries/early_imr.o
 .comment       0x000000000000002a       0x2b binaries/evec.o
 .comment       0x000000000000002a       0x2b binaries/freebuf.o
 .comment       0x000000000000002a       0x2b binaries/freemem.o
 .comment       0x000000000000002a       0x2b binaries/getbuf.o
 .comment       0x000000000000002a       0x2b binaries/getc.o
 .comment       0x000000000000002a       0x2b binaries/getdev.o
 .comment       0x000000000000002a       0x2b binaries/getitem.o
 .comment       0x000000000000002a       0x2b binaries/getmem.o
 .comment       0x000000000000002a       0x2b binaries/getpid.o
 .comment       0x000000000000002a       0x2b binaries/getprio.o
 .comment       0x000000000000002a       0x2b binaries/getstk.o
 .comment       0x000000000000002a       0x2b binaries/gettime.o
 .comment       0x000000000000002a       0x2b binaries/getutime.o
 .comment       0x000000000000002a       0x2b binaries/init.o
 .comment       0x000000000000002a       0x2b binaries/initialize.o
 .comment       0x000000000000002a       0x2b binaries/insert.o
 .comment       0x000000000000002a       0x2b binaries/insertd.o
 .comment       0x000000000000002a       0x2b binaries/ioerr.o
 .comment       0x000000000000002a       0x2b binaries/ionull.o
 .comment       0x000000000000002a       0x2b binaries/kill.o
 .comment       0x000000000000002a       0x2b binaries/kprintf.o
 .comment       0x000000000000002a       0x2b binaries/main.o
 .comment       0x000000000000002a       0x2b binaries/mark.o
 .comment       0x000000000000002a       0x2b binaries/meminit.o
 .comment       0x000000000000002a       0x2b binaries/mkbufpool.o
 .comment       0x000000000000002a       0x2b binaries/newqueue.o
 .comment       0x000000000000002a       0x2b binaries/open.o
 .comment       0x000000000000002a       0x2b binaries/panic.o
 .comment       0x000000000000002a       0x2b binaries/pci.o
 .comment       0x000000000000002a       0x2b binaries/platinit.o
 .comment       0x000000000000002a       0x2b binaries/ptclear.o
 .comment       0x000000000000002a       0x2b binaries/ptcount.o
 .comment       0x000000000000002a       0x2b binaries/ptcreate.o
 .comment       0x000000000000002a       0x2b binaries/ptdelete.o
 .comment       0x000000000000002a       0x2b binaries/ptinit.o
 .comment       0x000000000000002a       0x2b binaries/ptrecv.o
 .comment       0x000000000000002a       0x2b binaries/ptreset.o
 .comment       0x000000000000002a       0x2b binaries/ptsend.o
 .comment       0x000000000000002a       0x2b binaries/putc.o
 .comment       0x000000000000002a       0x2b binaries/quark_irq.o
 .comment       0x000000000000002a       0x2b binaries/quark_pdat.o
 .comment       0x000000000000002a       0x2b binaries/queue.o
 .comment       0x000000000000002a       0x2b binaries/read.o
 .comment       0x000000000000002a       0x2b binaries/ready.o
 .comment       0x000000000000002a       0x2b binaries/receive.o
 .comment       0x000000000000002a       0x2b binaries/recvclr.o
 .comment       0x000000000000002a       0x2b binaries/recvtime.o
 .comment       0x000000000000002a       0x2b binaries/resched.o
 .comment       0x000000000000002a       0x2b binaries/resume.o
 .comment       0x000000000000002a       0x2b binaries/seek.o
 .comment       0x000000000000002a       0x2b binaries/semcount.o
 .comment       0x000000000000002a       0x2b binaries/semcreate.o
 .comment       0x000000000000002a       0x2b binaries/semdelete.o
 .comment       0x000000000000002a       0x2b binaries/semreset.o
 .comment       0x000000000000002a       0x2b binaries/send.o
 .comment       0x000000000000002a       0x2b binaries/signal.o
 .comment       0x000000000000002a       0x2b binaries/signaln.o
 .comment       0x000000000000002a       0x2b binaries/sleep.o
 .comment       0x000000000000002a       0x2b binaries/stacktrace.o
 .comment       0x000000000000002a       0x2b binaries/suspend.o
 .comment       0x000000000000002a       0x2b binaries/unsleep.o
 .comment       0x000000000000002a       0x2b binaries/userret.o
 .comment       0x000000000000002a       0x2b binaries/wait.o
 .comment       0x000000000000002a       0x2b binaries/wakeup.o
 .comment       0x000000000000002a       0x2b binaries/write.o
 .comment       0x000000000000002a       0x2b binaries/xdone.o
 .comment       0x000000000000002a       0x2b binaries/yield.o
 .comment       0x000000000000002a       0x2b binaries/app1.o
 .comment       0x000000000000002a       0x2b binaries/app2.o
 .comment       0x000000000000002a       0x2b binaries/app3.o
 .comment       0x000000000000002a       0x2b binaries/getppid.o
 .comment       0x000000000000002a       0x2b binaries/getpstate.o
 .comment       0x000000000000002a       0x2b binaries/mywelcomemsg.o
 .comment       0x000000000000002a       0x2b binaries/host2netlb.o
 .comment       0x000000000000002a       0x2b binaries/host2netlc.o
 .comment       0x000000000000002a       0x2b binaries/prntsegaddr.o
 .comment       0x000000000000002a       0x2b binaries/stackdepth.o
 .comment       0x000000000000002a       0x2b binaries/stacktop.o
 .comment       0x000000000000002a       0x2b binaries/myappA.o
 .comment       0x000000000000002a       0x2b binaries/myhacker.o
 .comment       0x000000000000002a       0x2b binaries/myvictim.o
 .comment       0x000000000000002a       0x2b binaries/myhackermalware.o
 .comment       0x000000000000002a       0x2b binaries/lab2q3t1.o
 .comment       0x000000000000002a       0x2b binaries/abs.o
 .comment       0x000000000000002a       0x2b binaries/atoi.o
 .comment       0x000000000000002a       0x2b binaries/atol.o
 .comment       0x000000000000002a       0x2b binaries/bzero.o
 .comment       0x000000000000002a       0x2b binaries/ctype_.o
 .comment       0x000000000000002a       0x2b binaries/doprnt.o
 .comment       0x000000000000002a       0x2b binaries/doscan.o
 .comment       0x000000000000002a       0x2b binaries/fdoprnt.o
 .comment       0x000000000000002a       0x2b binaries/fgetc.o
 .comment       0x000000000000002a       0x2b binaries/fgets.o
 .comment       0x000000000000002a       0x2b binaries/fprintf.o
 .comment       0x000000000000002a       0x2b binaries/fputc.o
 .comment       0x000000000000002a       0x2b binaries/fputs.o
 .comment       0x000000000000002a       0x2b binaries/fscanf.o
 .comment       0x000000000000002a       0x2b binaries/getchar.o
 .comment       0x000000000000002a       0x2b binaries/labs.o
 .comment       0x000000000000002a       0x2b binaries/memchr.o
 .comment       0x000000000000002a       0x2b binaries/memcmp.o
 .comment       0x000000000000002a       0x2b binaries/memcpy.o
 .comment       0x000000000000002a       0x2b binaries/memset.o
 .comment       0x000000000000002a       0x2b binaries/printf.o
 .comment       0x000000000000002a       0x2b binaries/putchar.o
 .comment       0x000000000000002a       0x2b binaries/qsort.o
 .comment       0x000000000000002a       0x2b binaries/rand.o
 .comment       0x000000000000002a       0x2b binaries/sprintf.o
 .comment       0x000000000000002a       0x2b binaries/sscanf.o
 .comment       0x000000000000002a       0x2b binaries/strchr.o
 .comment       0x000000000000002a       0x2b binaries/strcmp.o
 .comment       0x000000000000002a       0x2b binaries/strcpy.o
 .comment       0x000000000000002a       0x2b binaries/strlen.o
 .comment       0x000000000000002a       0x2b binaries/strncat.o
 .comment       0x000000000000002a       0x2b binaries/strncmp.o
 .comment       0x000000000000002a       0x2b binaries/strncpy.o
 .comment       0x000000000000002a       0x2b binaries/strnlen.o
 .comment       0x000000000000002a       0x2b binaries/strrchr.o
 .comment       0x000000000000002a       0x2b binaries/strstr.o
 .comment       0x000000000000002a       0x2b binaries/ttycontrol.o
 .comment       0x000000000000002a       0x2b binaries/ttygetc.o
 .comment       0x000000000000002a       0x2b binaries/ttyhandle_in.o
 .comment       0x000000000000002a       0x2b binaries/ttyhandle_out.o
 .comment       0x000000000000002a       0x2b binaries/ttyhandler.o
 .comment       0x000000000000002a       0x2b binaries/ttyinit.o
 .comment       0x000000000000002a       0x2b binaries/ttykickout.o
 .comment       0x000000000000002a       0x2b binaries/ttyputc.o
 .comment       0x000000000000002a       0x2b binaries/ttyread.o
 .comment       0x000000000000002a       0x2b binaries/ttywrite.o
 .comment       0x000000000000002a       0x2b binaries/mount.o
 .comment       0x000000000000002a       0x2b binaries/naminit.o
 .comment       0x000000000000002a       0x2b binaries/nammap.o
 .comment       0x000000000000002a       0x2b binaries/namopen.o
 .comment       0x000000000000002a       0x2b binaries/colon2mac.o
 .comment       0x000000000000002a       0x2b binaries/ethcontrol.o
 .comment       0x000000000000002a       0x2b binaries/ethhandler.o
 .comment       0x000000000000002a       0x2b binaries/ethinit.o
 .comment       0x000000000000002a       0x2b binaries/ethmcast.o
 .comment       0x000000000000002a       0x2b binaries/ethread.o
 .comment       0x000000000000002a       0x2b binaries/ethwrite.o
 .comment       0x000000000000002a       0x2b binaries/rdsbufalloc.o
 .comment       0x000000000000002a       0x2b binaries/rdsclose.o
 .comment       0x000000000000002a       0x2b binaries/rdscomm.o
 .comment       0x000000000000002a       0x2b binaries/rdscontrol.o
 .comment       0x000000000000002a       0x2b binaries/rdsinit.o
 .comment       0x000000000000002a       0x2b binaries/rdsopen.o
 .comment       0x000000000000002a       0x2b binaries/rdsprocess.o
 .comment       0x000000000000002a       0x2b binaries/rdsread.o
 .comment       0x000000000000002a       0x2b binaries/rdswrite.o
 .comment       0x000000000000002a       0x2b binaries/ramclose.o
 .comment       0x000000000000002a       0x2b binaries/raminit.o
 .comment       0x000000000000002a       0x2b binaries/ramopen.o
 .comment       0x000000000000002a       0x2b binaries/ramread.o
 .comment       0x000000000000002a       0x2b binaries/ramwrite.o
 .comment       0x000000000000002a       0x2b binaries/lfdballoc.o
 .comment       0x000000000000002a       0x2b binaries/lfdbfree.o
 .comment       0x000000000000002a       0x2b binaries/lfflush.o
 .comment       0x000000000000002a       0x2b binaries/lfgetmode.o
 .comment       0x000000000000002a       0x2b binaries/lfiballoc.o
 .comment       0x000000000000002a       0x2b binaries/lfibclear.o
 .comment       0x000000000000002a       0x2b binaries/lfibget.o
 .comment       0x000000000000002a       0x2b binaries/lfibput.o
 .comment       0x000000000000002a       0x2b binaries/lflclose.o
 .comment       0x000000000000002a       0x2b binaries/lflcontrol.o
 .comment       0x000000000000002a       0x2b binaries/lflgetc.o
 .comment       0x000000000000002a       0x2b binaries/lflinit.o
 .comment       0x000000000000002a       0x2b binaries/lflputc.o
 .comment       0x000000000000002a       0x2b binaries/lflread.o
 .comment       0x000000000000002a       0x2b binaries/lflseek.o
 .comment       0x000000000000002a       0x2b binaries/lflwrite.o
 .comment       0x000000000000002a       0x2b binaries/lfsckfmt.o
 .comment       0x000000000000002a       0x2b binaries/lfscreate.o
 .comment       0x000000000000002a       0x2b binaries/lfsetup.o
 .comment       0x000000000000002a       0x2b binaries/lfsinit.o
 .comment       0x000000000000002a       0x2b binaries/lfsopen.o
 .comment       0x000000000000002a       0x2b binaries/lftruncate.o
 .comment       0x000000000000002a       0x2b binaries/rflclose.o
 .comment       0x000000000000002a       0x2b binaries/rflgetc.o
 .comment       0x000000000000002a       0x2b binaries/rflinit.o
 .comment       0x000000000000002a       0x2b binaries/rflputc.o
 .comment       0x000000000000002a       0x2b binaries/rflread.o
 .comment       0x000000000000002a       0x2b binaries/rflseek.o
 .comment       0x000000000000002a       0x2b binaries/rflwrite.o
 .comment       0x000000000000002a       0x2b binaries/rfscomm.o
 .comment       0x000000000000002a       0x2b binaries/rfscontrol.o
 .comment       0x000000000000002a       0x2b binaries/rfsgetmode.o
 .comment       0x000000000000002a       0x2b binaries/rfsinit.o
 .comment       0x000000000000002a       0x2b binaries/rfsndmsg.o
 .comment       0x000000000000002a       0x2b binaries/rfsopen.o
 .comment       0x000000000000002a       0x2b binaries/arp.o
 .comment       0x000000000000002a       0x2b binaries/dhcp.o
 .comment       0x000000000000002a       0x2b binaries/dot2ip.o
 .comment       0x000000000000002a       0x2b binaries/hexdump.o
 .comment       0x000000000000002a       0x2b binaries/icmp.o
 .comment       0x000000000000002a       0x2b binaries/ip.o
 .comment       0x000000000000002a       0x2b binaries/net.o
 .comment       0x000000000000002a       0x2b binaries/netstart.o
 .comment       0x000000000000002a       0x2b binaries/pdump.o
 .comment       0x000000000000002a       0x2b binaries/tftp.o
 .comment       0x000000000000002a       0x2b binaries/udp.o
 .comment       0x000000000000002a       0x2b binaries/addargs.o
 .comment       0x000000000000002a       0x2b binaries/lexan.o
 .comment       0x000000000000002a       0x2b binaries/shell.o
 .comment       0x000000000000002a       0x2b binaries/xsh_argecho.o
 .comment       0x000000000000002a       0x2b binaries/xsh_arp.o
 .comment       0x000000000000002a       0x2b binaries/xsh_cat.o
 .comment       0x000000000000002a       0x2b binaries/xsh_clear.o
 .comment       0x000000000000002a       0x2b binaries/xsh_date.o
 .comment       0x000000000000002a       0x2b binaries/xsh_devdump.o
 .comment       0x000000000000002a       0x2b binaries/xsh_echo.o
 .comment       0x000000000000002a       0x2b binaries/xsh_exit.o
 .comment       0x000000000000002a       0x2b binaries/xsh_help.o
 .comment       0x000000000000002a       0x2b binaries/xsh_ipaddr.o
 .comment       0x000000000000002a       0x2b binaries/xsh_kill.o
 .comment       0x000000000000002a       0x2b binaries/xsh_memdump.o
 .comment       0x000000000000002a       0x2b binaries/xsh_memstat.o
 .comment       0x000000000000002a       0x2b binaries/xsh_ping.o
 .comment       0x000000000000002a       0x2b binaries/xsh_ps.o
 .comment       0x000000000000002a       0x2b binaries/xsh_sleep.o
 .comment       0x000000000000002a       0x2b binaries/xsh_udpdump.o
 .comment       0x000000000000002a       0x2b binaries/xsh_udpecho.o
 .comment       0x000000000000002a       0x2b binaries/xsh_udpeserver.o
 .comment       0x000000000000002a       0x2b binaries/xsh_uptime.o

.note.GNU-stack
                0x0000000000000000        0x0
 .note.GNU-stack
                0x0000000000000000        0x0 binaries/ascdate.o
 .note.GNU-stack
                0x0000000000000000        0x0 binaries/bufinit.o
 .note.GNU-stack
                0x0000000000000000        0x0 binaries/chprio.o
 .note.GNU-stack
                0x0000000000000000        0x0 binaries/clkhandler.o
 .note.GNU-stack
                0x0000000000000000        0x0 binaries/clkinit.o
 .note.GNU-stack
                0x0000000000000000        0x0 binaries/close.o
 .note.GNU-stack
                0x0000000000000000        0x0 binaries/conf.o
 .note.GNU-stack
                0x0000000000000000        0x0 binaries/control.o
 .note.GNU-stack
                0x0000000000000000        0x0 binaries/create.o
 .note.GNU-stack
                0x0000000000000000        0x0 binaries/early_imr.o
 .note.GNU-stack
                0x0000000000000000        0x0 binaries/evec.o
 .note.GNU-stack
                0x0000000000000000        0x0 binaries/freebuf.o
 .note.GNU-stack
                0x0000000000000000        0x0 binaries/freemem.o
 .note.GNU-stack
                0x0000000000000000        0x0 binaries/getbuf.o
 .note.GNU-stack
                0x0000000000000000        0x0 binaries/getc.o
 .note.GNU-stack
                0x0000000000000000        0x0 binaries/getdev.o
 .note.GNU-stack
                0x0000000000000000        0x0 binaries/getitem.o
 .note.GNU-stack
                0x0000000000000000        0x0 binaries/getmem.o
 .note.GNU-stack
                0x0000000000000000        0x0 binaries/getpid.o
 .note.GNU-stack
                0x0000000000000000        0x0 binaries/getprio.o
 .note.GNU-stack
                0x0000000000000000        0x0 binaries/getstk.o
 .note.GNU-stack
                0x0000000000000000        0x0 binaries/gettime.o
 .note.GNU-stack
                0x0000000000000000        0x0 binaries/getutime.o
 .note.GNU-stack
                0x0000000000000000        0x0 binaries/init.o
 .note.GNU-stack
                0x0000000000000000        0x0 binaries/initialize.o
 .note.GNU-stack
                0x0000000000000000        0x0 binaries/insert.o
 .note.GNU-stack
                0x0000000000000000        0x0 binaries/insertd.o
 .note.GNU-stack
                0x0000000000000000        0x0 binaries/ioerr.o
 .note.GNU-stack
                0x0000000000000000        0x0 binaries/ionull.o
 .note.GNU-stack
                0x0000000000000000        0x0 binaries/kill.o
 .note.GNU-stack
                0x0000000000000000        0x0 binaries/kprintf.o
 .note.GNU-stack
                0x0000000000000000        0x0 binaries/main.o
 .note.GNU-stack
                0x0000000000000000        0x0 binaries/mark.o
 .note.GNU-stack
                0x0000000000000000        0x0 binaries/meminit.o
 .note.GNU-stack
                0x0000000000000000        0x0 binaries/mkbufpool.o
 .note.GNU-stack
                0x0000000000000000        0x0 binaries/newqueue.o
 .note.GNU-stack
                0x0000000000000000        0x0 binaries/open.o
 .note.GNU-stack
                0x0000000000000000        0x0 binaries/panic.o
 .note.GNU-stack
                0x0000000000000000        0x0 binaries/pci.o
 .note.GNU-stack
                0x0000000000000000        0x0 binaries/platinit.o
 .note.GNU-stack
                0x0000000000000000        0x0 binaries/ptclear.o
 .note.GNU-stack
                0x0000000000000000        0x0 binaries/ptcount.o
 .note.GNU-stack
                0x0000000000000000        0x0 binaries/ptcreate.o
 .note.GNU-stack
                0x0000000000000000        0x0 binaries/ptdelete.o
 .note.GNU-stack
                0x0000000000000000        0x0 binaries/ptinit.o
 .note.GNU-stack
                0x0000000000000000        0x0 binaries/ptrecv.o
 .note.GNU-stack
                0x0000000000000000        0x0 binaries/ptreset.o
 .note.GNU-stack
                0x0000000000000000        0x0 binaries/ptsend.o
 .note.GNU-stack
                0x0000000000000000        0x0 binaries/putc.o
 .note.GNU-stack
                0x0000000000000000        0x0 binaries/quark_irq.o
 .note.GNU-stack
                0x0000000000000000        0x0 binaries/quark_pdat.o
 .note.GNU-stack
                0x0000000000000000        0x0 binaries/queue.o
 .note.GNU-stack
                0x0000000000000000        0x0 binaries/read.o
 .note.GNU-stack
                0x0000000000000000        0x0 binaries/ready.o
 .note.GNU-stack
                0x0000000000000000        0x0 binaries/receive.o
 .note.GNU-stack
                0x0000000000000000        0x0 binaries/recvclr.o
 .note.GNU-stack
                0x0000000000000000        0x0 binaries/recvtime.o
 .note.GNU-stack
                0x0000000000000000        0x0 binaries/resched.o
 .note.GNU-stack
                0x0000000000000000        0x0 binaries/resume.o
 .note.GNU-stack
                0x0000000000000000        0x0 binaries/seek.o
 .note.GNU-stack
                0x0000000000000000        0x0 binaries/semcount.o
 .note.GNU-stack
                0x0000000000000000        0x0 binaries/semcreate.o
 .note.GNU-stack
                0x0000000000000000        0x0 binaries/semdelete.o
 .note.GNU-stack
                0x0000000000000000        0x0 binaries/semreset.o
 .note.GNU-stack
                0x0000000000000000        0x0 binaries/send.o
 .note.GNU-stack
                0x0000000000000000        0x0 binaries/signal.o
 .note.GNU-stack
                0x0000000000000000        0x0 binaries/signaln.o
 .note.GNU-stack
                0x0000000000000000        0x0 binaries/sleep.o
 .note.GNU-stack
                0x0000000000000000        0x0 binaries/stacktrace.o
 .note.GNU-stack
                0x0000000000000000        0x0 binaries/suspend.o
 .note.GNU-stack
                0x0000000000000000        0x0 binaries/unsleep.o
 .note.GNU-stack
                0x0000000000000000        0x0 binaries/userret.o
 .note.GNU-stack
                0x0000000000000000        0x0 binaries/wait.o
 .note.GNU-stack
                0x0000000000000000        0x0 binaries/wakeup.o
 .note.GNU-stack
                0x0000000000000000        0x0 binaries/write.o
 .note.GNU-stack
                0x0000000000000000        0x0 binaries/xdone.o
 .note.GNU-stack
                0x0000000000000000        0x0 binaries/yield.o
 .note.GNU-stack
                0x0000000000000000        0x0 binaries/app1.o
 .note.GNU-stack
                0x0000000000000000        0x0 binaries/app2.o
 .note.GNU-stack
                0x0000000000000000        0x0 binaries/app3.o
 .note.GNU-stack
                0x0000000000000000        0x0 binaries/getppid.o
 .note.GNU-stack
                0x0000000000000000        0x0 binaries/getpstate.o
 .note.GNU-stack
                0x0000000000000000        0x0 binaries/mywelcomemsg.o
 .note.GNU-stack
                0x0000000000000000        0x0 binaries/host2netlb.o
 .note.GNU-stack
                0x0000000000000000        0x0 binaries/host2netlc.o
 .note.GNU-stack
                0x0000000000000000        0x0 binaries/prntsegaddr.o
 .note.GNU-stack
                0x0000000000000000        0x0 binaries/stackdepth.o
 .note.GNU-stack
                0x0000000000000000        0x0 binaries/stacktop.o
 .note.GNU-stack
                0x0000000000000000        0x0 binaries/myappA.o
 .note.GNU-stack
                0x0000000000000000        0x0 binaries/myhacker.o
 .note.GNU-stack
                0x0000000000000000        0x0 binaries/myvictim.o
 .note.GNU-stack
                0x0000000000000000        0x0 binaries/myhackermalware.o
 .note.GNU-stack
                0x0000000000000000        0x0 binaries/lab2q3t1.o
 .note.GNU-stack
                0x0000000000000000        0x0 binaries/abs.o
 .note.GNU-stack
                0x0000000000000000        0x0 binaries/atoi.o
 .note.GNU-stack
                0x0000000000000000        0x0 binaries/atol.o
 .note.GNU-stack
                0x0000000000000000        0x0 binaries/bzero.o
 .note.GNU-stack
                0x0000000000000000        0x0 binaries/ctype_.o
 .note.GNU-stack
                0x0000000000000000        0x0 binaries/doprnt.o
 .note.GNU-stack
                0x0000000000000000        0x0 binaries/doscan.o
 .note.GNU-stack
                0x0000000000000000        0x0 binaries/fdoprnt.o
 .note.GNU-stack
                0x0000000000000000        0x0 binaries/fgetc.o
 .note.GNU-stack
                0x0000000000000000        0x0 binaries/fgets.o
 .note.GNU-stack
                0x0000000000000000        0x0 binaries/fprintf.o
 .note.GNU-stack
                0x0000000000000000        0x0 binaries/fputc.o
 .note.GNU-stack
                0x0000000000000000        0x0 binaries/fputs.o
 .note.GNU-stack
                0x0000000000000000        0x0 binaries/fscanf.o
 .note.GNU-stack
                0x0000000000000000        0x0 binaries/getchar.o
 .note.GNU-stack
                0x0000000000000000        0x0 binaries/labs.o
 .note.GNU-stack
                0x0000000000000000        0x0 binaries/memchr.o
 .note.GNU-stack
                0x0000000000000000        0x0 binaries/memcmp.o
 .note.GNU-stack
                0x0000000000000000        0x0 binaries/memcpy.o
 .note.GNU-stack
                0x0000000000000000        0x0 binaries/memset.o
 .note.GNU-stack
                0x0000000000000000        0x0 binaries/printf.o
 .note.GNU-stack
                0x0000000000000000        0x0 binaries/putchar.o
 .note.GNU-stack
                0x0000000000000000        0x0 binaries/qsort.o
 .note.GNU-stack
                0x0000000000000000        0x0 binaries/rand.o
 .note.GNU-stack
                0x0000000000000000        0x0 binaries/sprintf.o
 .note.GNU-stack
                0x0000000000000000        0x0 binaries/sscanf.o
 .note.GNU-stack
                0x0000000000000000        0x0 binaries/strchr.o
 .note.GNU-stack
                0x0000000000000000        0x0 binaries/strcmp.o
 .note.GNU-stack
                0x0000000000000000        0x0 binaries/strcpy.o
 .note.GNU-stack
                0x0000000000000000        0x0 binaries/strlen.o
 .note.GNU-stack
                0x0000000000000000        0x0 binaries/strncat.o
 .note.GNU-stack
                0x0000000000000000        0x0 binaries/strncmp.o
 .note.GNU-stack
                0x0000000000000000        0x0 binaries/strncpy.o
 .note.GNU-stack
                0x0000000000000000        0x0 binaries/strnlen.o
 .note.GNU-stack
                0x0000000000000000        0x0 binaries/strrchr.o
 .note.GNU-stack
                0x0000000000000000        0x0 binaries/strstr.o
 .note.GNU-stack
                0x0000000000000000        0x0 binaries/ttycontrol.o
 .note.GNU-stack
                0x0000000000000000        0x0 binaries/ttygetc.o
 .note.GNU-stack
                0x0000000000000000        0x0 binaries/ttyhandle_in.o
 .note.GNU-stack
                0x0000000000000000        0x0 binaries/ttyhandle_out.o
 .note.GNU-stack
                0x0000000000000000        0x0 binaries/ttyhandler.o
 .note.GNU-stack
                0x0000000000000000        0x0 binaries/ttyinit.o
 .note.GNU-stack
                0x0000000000000000        0x0 binaries/ttykickout.o
 .note.GNU-stack
                0x0000000000000000        0x0 binaries/ttyputc.o
 .note.GNU-stack
                0x0000000000000000        0x0 binaries/ttyread.o
 .note.GNU-stack
                0x0000000000000000        0x0 binaries/ttywrite.o
 .note.GNU-stack
                0x0000000000000000        0x0 binaries/mount.o
 .note.GNU-stack
                0x0000000000000000        0x0 binaries/naminit.o
 .note.GNU-stack
                0x0000000000000000        0x0 binaries/nammap.o
 .note.GNU-stack
                0x0000000000000000        0x0 binaries/namopen.o
 .note.GNU-stack
                0x0000000000000000        0x0 binaries/colon2mac.o
 .note.GNU-stack
                0x0000000000000000        0x0 binaries/ethcontrol.o
 .note.GNU-stack
                0x0000000000000000        0x0 binaries/ethhandler.o
 .note.GNU-stack
                0x0000000000000000        0x0 binaries/ethinit.o
 .note.GNU-stack
                0x0000000000000000        0x0 binaries/ethmcast.o
 .note.GNU-stack
                0x0000000000000000        0x0 binaries/ethread.o
 .note.GNU-stack
                0x0000000000000000        0x0 binaries/ethwrite.o
 .note.GNU-stack
                0x0000000000000000        0x0 binaries/rdsbufalloc.o
 .note.GNU-stack
                0x0000000000000000        0x0 binaries/rdsclose.o
 .note.GNU-stack
                0x0000000000000000        0x0 binaries/rdscomm.o
 .note.GNU-stack
                0x0000000000000000        0x0 binaries/rdscontrol.o
 .note.GNU-stack
                0x0000000000000000        0x0 binaries/rdsinit.o
 .note.GNU-stack
                0x0000000000000000        0x0 binaries/rdsopen.o
 .note.GNU-stack
                0x0000000000000000        0x0 binaries/rdsprocess.o
 .note.GNU-stack
                0x0000000000000000        0x0 binaries/rdsread.o
 .note.GNU-stack
                0x0000000000000000        0x0 binaries/rdswrite.o
 .note.GNU-stack
                0x0000000000000000        0x0 binaries/ramclose.o
 .note.GNU-stack
                0x0000000000000000        0x0 binaries/raminit.o
 .note.GNU-stack
                0x0000000000000000        0x0 binaries/ramopen.o
 .note.GNU-stack
                0x0000000000000000        0x0 binaries/ramread.o
 .note.GNU-stack
                0x0000000000000000        0x0 binaries/ramwrite.o
 .note.GNU-stack
                0x0000000000000000        0x0 binaries/lfdballoc.o
 .note.GNU-stack
                0x0000000000000000        0x0 binaries/lfdbfree.o
 .note.GNU-stack
                0x0000000000000000        0x0 binaries/lfflush.o
 .note.GNU-stack
                0x0000000000000000        0x0 binaries/lfgetmode.o
 .note.GNU-stack
                0x0000000000000000        0x0 binaries/lfiballoc.o
 .note.GNU-stack
                0x0000000000000000        0x0 binaries/lfibclear.o
 .note.GNU-stack
                0x0000000000000000        0x0 binaries/lfibget.o
 .note.GNU-stack
                0x0000000000000000        0x0 binaries/lfibput.o
 .note.GNU-stack
                0x0000000000000000        0x0 binaries/lflclose.o
 .note.GNU-stack
                0x0000000000000000        0x0 binaries/lflcontrol.o
 .note.GNU-stack
                0x0000000000000000        0x0 binaries/lflgetc.o
 .note.GNU-stack
                0x0000000000000000        0x0 binaries/lflinit.o
 .note.GNU-stack
                0x0000000000000000        0x0 binaries/lflputc.o
 .note.GNU-stack
                0x0000000000000000        0x0 binaries/lflread.o
 .note.GNU-stack
                0x0000000000000000        0x0 binaries/lflseek.o
 .note.GNU-stack
                0x0000000000000000        0x0 binaries/lflwrite.o
 .note.GNU-stack
                0x0000000000000000        0x0 binaries/lfsckfmt.o
 .note.GNU-stack
                0x0000000000000000        0x0 binaries/lfscreate.o
 .note.GNU-stack
                0x0000000000000000        0x0 binaries/lfsetup.o
 .note.GNU-stack
                0x0000000000000000        0x0 binaries/lfsinit.o
 .note.GNU-stack
                0x0000000000000000        0x0 binaries/lfsopen.o
 .note.GNU-stack
                0x0000000000000000        0x0 binaries/lftruncate.o
 .note.GNU-stack
                0x0000000000000000        0x0 binaries/rflclose.o
 .note.GNU-stack
                0x0000000000000000        0x0 binaries/rflgetc.o
 .note.GNU-stack
                0x0000000000000000        0x0 binaries/rflinit.o
 .note.GNU-stack
                0x0000000000000000        0x0 binaries/rflputc.o
 .note.GNU-stack
                0x0000000000000000        0x0 binaries/rflread.o
 .note.GNU-stack
                0x0000000000000000        0x0 binaries/rflseek.o
 .note.GNU-stack
                0x0000000000000000        0x0 binaries/rflwrite.o
 .note.GNU-stack
                0x0000000000000000        0x0 binaries/rfscomm.o
 .note.GNU-stack
                0x0000000000000000        0x0 binaries/rfscontrol.o
 .note.GNU-stack
                0x0000000000000000        0x0 binaries/rfsgetmode.o
 .note.GNU-stack
                0x0000000000000000        0x0 binaries/rfsinit.o
 .note.GNU-stack
                0x0000000000000000        0x0 binaries/rfsndmsg.o
 .note.GNU-stack
                0x0000000000000000        0x0 binaries/rfsopen.o
 .note.GNU-stack
                0x0000000000000000        0x0 binaries/arp.o
 .note.GNU-stack
                0x0000000000000000        0x0 binaries/dhcp.o
 .note.GNU-stack
                0x0000000000000000        0x0 binaries/dot2ip.o
 .note.GNU-stack
                0x0000000000000000        0x0 binaries/hexdump.o
 .note.GNU-stack
                0x0000000000000000        0x0 binaries/icmp.o
 .note.GNU-stack
                0x0000000000000000        0x0 binaries/ip.o
 .note.GNU-stack
                0x0000000000000000        0x0 binaries/net.o
 .note.GNU-stack
                0x0000000000000000        0x0 binaries/netstart.o
 .note.GNU-stack
                0x0000000000000000        0x0 binaries/pdump.o
 .note.GNU-stack
                0x0000000000000000        0x0 binaries/tftp.o
 .note.GNU-stack
                0x0000000000000000        0x0 binaries/udp.o
 .note.GNU-stack
                0x0000000000000000        0x0 binaries/addargs.o
 .note.GNU-stack
                0x0000000000000000        0x0 binaries/lexan.o
 .note.GNU-stack
                0x0000000000000000        0x0 binaries/shell.o
 .note.GNU-stack
                0x0000000000000000        0x0 binaries/xsh_argecho.o
 .note.GNU-stack
                0x0000000000000000        0x0 binaries/xsh_arp.o
 .note.GNU-stack
                0x0000000000000000        0x0 binaries/xsh_cat.o
 .note.GNU-stack
                0x0000000000000000        0x0 binaries/xsh_clear.o
 .note.GNU-stack
                0x0000000000000000        0x0 binaries/xsh_date.o
 .note.GNU-stack
                0x0000000000000000        0x0 binaries/xsh_devdump.o
 .note.GNU-stack
                0x0000000000000000        0x0 binaries/xsh_echo.o
 .note.GNU-stack
                0x0000000000000000        0x0 binaries/xsh_exit.o
 .note.GNU-stack
                0x0000000000000000        0x0 binaries/xsh_help.o
 .note.GNU-stack
                0x0000000000000000        0x0 binaries/xsh_ipaddr.o
 .note.GNU-stack
                0x0000000000000000        0x0 binaries/xsh_kill.o
 .note.GNU-stack
                0x0000000000000000        0x0 binaries/xsh_memdump.o
 .note.GNU-stack
                0x0000000000000000        0x0 binaries/xsh_memstat.o
 .note.GNU-stack
                0x0000000000000000        0x0 binaries/xsh_ping.o
 .note.GNU-stack
                0x0000000000000000        0x0 binaries/xsh_ps.o
 .note.GNU-stack
                0x0000000000000000        0x0 binaries/xsh_sleep.o
 .note.GNU-stack
                0x0000000000000000        0x0 binaries/xsh_udpdump.o
 .note.GNU-stack
                0x0000000000000000        0x0 binaries/xsh_udpecho.o
 .note.GNU-stack
                0x0000000000000000        0x0 binaries/xsh_udpeserver.o
 .note.GNU-stack
                0x0000000000000000        0x0 binaries/xsh_uptime.o
